
TWI_Master.elf:     file format elf32-avr

Sections:
Idx Name          Size      VMA       LMA       File off  Algn
  0 .data         000000ce  00800100  00001c90  00001d24  2**0
                  CONTENTS, ALLOC, LOAD, DATA
  1 .text         00001c90  00000000  00000000  00000094  2**1
                  CONTENTS, ALLOC, LOAD, READONLY, CODE
  2 .bss          00000123  008001ce  008001ce  00001df2  2**0
                  ALLOC
  3 .comment      0000005c  00000000  00000000  00001df2  2**0
                  CONTENTS, READONLY
  4 .note.gnu.avr.deviceinfo 0000003c  00000000  00000000  00001e50  2**2
                  CONTENTS, READONLY
  5 .debug_aranges 00000078  00000000  00000000  00001e8c  2**0
                  CONTENTS, READONLY, DEBUGGING
  6 .debug_info   00003fd4  00000000  00000000  00001f04  2**0
                  CONTENTS, READONLY, DEBUGGING
  7 .debug_abbrev 00000a6f  00000000  00000000  00005ed8  2**0
                  CONTENTS, READONLY, DEBUGGING
  8 .debug_line   00001958  00000000  00000000  00006947  2**0
                  CONTENTS, READONLY, DEBUGGING
  9 .debug_frame  00000198  00000000  00000000  000082a0  2**2
                  CONTENTS, READONLY, DEBUGGING
 10 .debug_str    0000090a  00000000  00000000  00008438  2**0
                  CONTENTS, READONLY, DEBUGGING
 11 .debug_loc    00002928  00000000  00000000  00008d42  2**0
                  CONTENTS, READONLY, DEBUGGING
 12 .debug_ranges 000000b0  00000000  00000000  0000b66a  2**0
                  CONTENTS, READONLY, DEBUGGING

Disassembly of section .text:

00000000 <__vectors>:
       0:	45 c0       	rjmp	.+138    	; 0x8c <__ctors_end>
       2:	00 00       	nop
       4:	61 c0       	rjmp	.+194    	; 0xc8 <__bad_interrupt>
       6:	00 00       	nop
       8:	5f c0       	rjmp	.+190    	; 0xc8 <__bad_interrupt>
       a:	00 00       	nop
       c:	5d c0       	rjmp	.+186    	; 0xc8 <__bad_interrupt>
       e:	00 00       	nop
      10:	5b c0       	rjmp	.+182    	; 0xc8 <__bad_interrupt>
      12:	00 00       	nop
      14:	59 c0       	rjmp	.+178    	; 0xc8 <__bad_interrupt>
      16:	00 00       	nop
      18:	57 c0       	rjmp	.+174    	; 0xc8 <__bad_interrupt>
      1a:	00 00       	nop
      1c:	55 c0       	rjmp	.+170    	; 0xc8 <__bad_interrupt>
      1e:	00 00       	nop
      20:	53 c0       	rjmp	.+166    	; 0xc8 <__bad_interrupt>
      22:	00 00       	nop
      24:	51 c0       	rjmp	.+162    	; 0xc8 <__bad_interrupt>
      26:	00 00       	nop
      28:	4f c0       	rjmp	.+158    	; 0xc8 <__bad_interrupt>
      2a:	00 00       	nop
      2c:	4d c0       	rjmp	.+154    	; 0xc8 <__bad_interrupt>
      2e:	00 00       	nop
      30:	03 c1       	rjmp	.+518    	; 0x238 <__vector_12>
      32:	00 00       	nop
      34:	49 c0       	rjmp	.+146    	; 0xc8 <__bad_interrupt>
      36:	00 00       	nop
      38:	47 c0       	rjmp	.+142    	; 0xc8 <__bad_interrupt>
      3a:	00 00       	nop
      3c:	45 c0       	rjmp	.+138    	; 0xc8 <__bad_interrupt>
      3e:	00 00       	nop
      40:	43 c0       	rjmp	.+134    	; 0xc8 <__bad_interrupt>
      42:	00 00       	nop
      44:	41 c0       	rjmp	.+130    	; 0xc8 <__bad_interrupt>
      46:	00 00       	nop
      48:	3f c0       	rjmp	.+126    	; 0xc8 <__bad_interrupt>
      4a:	00 00       	nop
      4c:	3d c0       	rjmp	.+122    	; 0xc8 <__bad_interrupt>
      4e:	00 00       	nop
      50:	3b c0       	rjmp	.+118    	; 0xc8 <__bad_interrupt>
      52:	00 00       	nop
      54:	39 c0       	rjmp	.+114    	; 0xc8 <__bad_interrupt>
      56:	00 00       	nop
      58:	37 c0       	rjmp	.+110    	; 0xc8 <__bad_interrupt>
      5a:	00 00       	nop
      5c:	35 c0       	rjmp	.+106    	; 0xc8 <__bad_interrupt>
      5e:	00 00       	nop
      60:	33 c0       	rjmp	.+102    	; 0xc8 <__bad_interrupt>
      62:	00 00       	nop
      64:	31 c0       	rjmp	.+98     	; 0xc8 <__bad_interrupt>
      66:	00 00       	nop
      68:	2a c1       	rjmp	.+596    	; 0x2be <__vector_26>
      6a:	00 00       	nop
      6c:	2d c0       	rjmp	.+90     	; 0xc8 <__bad_interrupt>
      6e:	00 00       	nop
      70:	2b c0       	rjmp	.+86     	; 0xc8 <__bad_interrupt>
      72:	00 00       	nop
      74:	29 c0       	rjmp	.+82     	; 0xc8 <__bad_interrupt>
      76:	00 00       	nop
      78:	27 c0       	rjmp	.+78     	; 0xc8 <__bad_interrupt>
      7a:	00 00       	nop
      7c:	25 c0       	rjmp	.+74     	; 0xc8 <__bad_interrupt>
      7e:	00 00       	nop
      80:	23 c0       	rjmp	.+70     	; 0xc8 <__bad_interrupt>
      82:	00 00       	nop
      84:	21 c0       	rjmp	.+66     	; 0xc8 <__bad_interrupt>
      86:	00 00       	nop
      88:	1f c0       	rjmp	.+62     	; 0xc8 <__bad_interrupt>
	...

0000008c <__ctors_end>:
      8c:	11 24       	eor	r1, r1
      8e:	1f be       	out	0x3f, r1	; 63
      90:	cf ef       	ldi	r28, 0xFF	; 255
      92:	d0 e1       	ldi	r29, 0x10	; 16
      94:	de bf       	out	0x3e, r29	; 62
      96:	cd bf       	out	0x3d, r28	; 61

00000098 <__do_copy_data>:
      98:	11 e0       	ldi	r17, 0x01	; 1
      9a:	a0 e0       	ldi	r26, 0x00	; 0
      9c:	b1 e0       	ldi	r27, 0x01	; 1
      9e:	e0 e9       	ldi	r30, 0x90	; 144
      a0:	fc e1       	ldi	r31, 0x1C	; 28
      a2:	00 e0       	ldi	r16, 0x00	; 0
      a4:	0b bf       	out	0x3b, r16	; 59
      a6:	02 c0       	rjmp	.+4      	; 0xac <__do_copy_data+0x14>
      a8:	07 90       	elpm	r0, Z+
      aa:	0d 92       	st	X+, r0
      ac:	ae 3c       	cpi	r26, 0xCE	; 206
      ae:	b1 07       	cpc	r27, r17
      b0:	d9 f7       	brne	.-10     	; 0xa8 <__do_copy_data+0x10>

000000b2 <__do_clear_bss>:
      b2:	22 e0       	ldi	r18, 0x02	; 2
      b4:	ae ec       	ldi	r26, 0xCE	; 206
      b6:	b1 e0       	ldi	r27, 0x01	; 1
      b8:	01 c0       	rjmp	.+2      	; 0xbc <.do_clear_bss_start>

000000ba <.do_clear_bss_loop>:
      ba:	1d 92       	st	X+, r1

000000bc <.do_clear_bss_start>:
      bc:	a1 3f       	cpi	r26, 0xF1	; 241
      be:	b2 07       	cpc	r27, r18
      c0:	e1 f7       	brne	.-8      	; 0xba <.do_clear_bss_loop>
      c2:	b2 d6       	rcall	.+3428   	; 0xe28 <main>
      c4:	0c 94 46 0e 	jmp	0x1c8c	; 0x1c8c <_exit>

000000c8 <__bad_interrupt>:
      c8:	9b cf       	rjmp	.-202    	; 0x0 <__vectors>

000000ca <PORTC_Init>:
			return ret;
		}
	}
	TWI_Stop();
	return 0; // Success
}
      ca:	84 b3       	in	r24, 0x14	; 20
      cc:	80 7f       	andi	r24, 0xF0	; 240
      ce:	84 bb       	out	0x14, r24	; 20
      d0:	85 b3       	in	r24, 0x15	; 21
      d2:	8f 60       	ori	r24, 0x0F	; 15
      d4:	85 bb       	out	0x15, r24	; 21
      d6:	08 95       	ret

000000d8 <DISPLAY_WELCOME_MESSAGE>:
      d8:	e5 e6       	ldi	r30, 0x65	; 101
      da:	f0 e0       	ldi	r31, 0x00	; 0
      dc:	80 81       	ld	r24, Z
      de:	8b 7f       	andi	r24, 0xFB	; 251
      e0:	80 83       	st	Z, r24
      e2:	80 81       	ld	r24, Z
      e4:	8d 7f       	andi	r24, 0xFD	; 253
      e6:	80 83       	st	Z, r24
      e8:	80 81       	ld	r24, Z
      ea:	81 60       	ori	r24, 0x01	; 1
      ec:	80 83       	st	Z, r24
      ee:	86 ef       	ldi	r24, 0xF6	; 246
      f0:	8a 95       	dec	r24
      f2:	f1 f7       	brne	.-4      	; 0xf0 <DISPLAY_WELCOME_MESSAGE+0x18>
      f4:	81 e0       	ldi	r24, 0x01	; 1
      f6:	8b bb       	out	0x1b, r24	; 27
      f8:	86 ef       	ldi	r24, 0xF6	; 246
      fa:	8a 95       	dec	r24
      fc:	f1 f7       	brne	.-4      	; 0xfa <DISPLAY_WELCOME_MESSAGE+0x22>
      fe:	80 81       	ld	r24, Z
     100:	8e 7f       	andi	r24, 0xFE	; 254
     102:	80 83       	st	Z, r24
     104:	82 e0       	ldi	r24, 0x02	; 2
     106:	06 c0       	rjmp	.+12     	; 0x114 <DISPLAY_WELCOME_MESSAGE+0x3c>
     108:	e6 e6       	ldi	r30, 0x66	; 102
     10a:	fe e0       	ldi	r31, 0x0E	; 14
     10c:	31 97       	sbiw	r30, 0x01	; 1
     10e:	f1 f7       	brne	.-4      	; 0x10c <DISPLAY_WELCOME_MESSAGE+0x34>
     110:	00 00       	nop
     112:	89 2f       	mov	r24, r25
     114:	9f ef       	ldi	r25, 0xFF	; 255
     116:	98 0f       	add	r25, r24
     118:	81 11       	cpse	r24, r1
     11a:	f6 cf       	rjmp	.-20     	; 0x108 <DISPLAY_WELCOME_MESSAGE+0x30>
     11c:	e5 e6       	ldi	r30, 0x65	; 101
     11e:	f0 e0       	ldi	r31, 0x00	; 0
     120:	80 81       	ld	r24, Z
     122:	8b 7f       	andi	r24, 0xFB	; 251
     124:	80 83       	st	Z, r24
     126:	80 81       	ld	r24, Z
     128:	8d 7f       	andi	r24, 0xFD	; 253
     12a:	80 83       	st	Z, r24
     12c:	80 81       	ld	r24, Z
     12e:	81 60       	ori	r24, 0x01	; 1
     130:	80 83       	st	Z, r24
     132:	86 ef       	ldi	r24, 0xF6	; 246
     134:	8a 95       	dec	r24
     136:	f1 f7       	brne	.-4      	; 0x134 <DISPLAY_WELCOME_MESSAGE+0x5c>
     138:	80 e8       	ldi	r24, 0x80	; 128
     13a:	8b bb       	out	0x1b, r24	; 27
     13c:	86 ef       	ldi	r24, 0xF6	; 246
     13e:	8a 95       	dec	r24
     140:	f1 f7       	brne	.-4      	; 0x13e <DISPLAY_WELCOME_MESSAGE+0x66>
     142:	80 81       	ld	r24, Z
     144:	8e 7f       	andi	r24, 0xFE	; 254
     146:	80 83       	st	Z, r24
     148:	af eb       	ldi	r26, 0xBF	; 191
     14a:	b1 e0       	ldi	r27, 0x01	; 1
     14c:	22 c0       	rjmp	.+68     	; 0x192 <DISPLAY_WELCOME_MESSAGE+0xba>
     14e:	11 96       	adiw	r26, 0x01	; 1
     150:	81 e0       	ldi	r24, 0x01	; 1
     152:	06 c0       	rjmp	.+12     	; 0x160 <DISPLAY_WELCOME_MESSAGE+0x88>
     154:	e6 e6       	ldi	r30, 0x66	; 102
     156:	fe e0       	ldi	r31, 0x0E	; 14
     158:	31 97       	sbiw	r30, 0x01	; 1
     15a:	f1 f7       	brne	.-4      	; 0x158 <DISPLAY_WELCOME_MESSAGE+0x80>
     15c:	00 00       	nop
     15e:	82 2f       	mov	r24, r18
     160:	2f ef       	ldi	r18, 0xFF	; 255
     162:	28 0f       	add	r18, r24
     164:	81 11       	cpse	r24, r1
     166:	f6 cf       	rjmp	.-20     	; 0x154 <DISPLAY_WELCOME_MESSAGE+0x7c>
     168:	e5 e6       	ldi	r30, 0x65	; 101
     16a:	f0 e0       	ldi	r31, 0x00	; 0
     16c:	80 81       	ld	r24, Z
     16e:	84 60       	ori	r24, 0x04	; 4
     170:	80 83       	st	Z, r24
     172:	80 81       	ld	r24, Z
     174:	8d 7f       	andi	r24, 0xFD	; 253
     176:	80 83       	st	Z, r24
     178:	80 81       	ld	r24, Z
     17a:	81 60       	ori	r24, 0x01	; 1
     17c:	80 83       	st	Z, r24
     17e:	86 ef       	ldi	r24, 0xF6	; 246
     180:	8a 95       	dec	r24
     182:	f1 f7       	brne	.-4      	; 0x180 <DISPLAY_WELCOME_MESSAGE+0xa8>
     184:	9b bb       	out	0x1b, r25	; 27
     186:	86 ef       	ldi	r24, 0xF6	; 246
     188:	8a 95       	dec	r24
     18a:	f1 f7       	brne	.-4      	; 0x188 <DISPLAY_WELCOME_MESSAGE+0xb0>
     18c:	80 81       	ld	r24, Z
     18e:	8e 7f       	andi	r24, 0xFE	; 254
     190:	80 83       	st	Z, r24
     192:	9c 91       	ld	r25, X
     194:	91 11       	cpse	r25, r1
     196:	db cf       	rjmp	.-74     	; 0x14e <DISPLAY_WELCOME_MESSAGE+0x76>
     198:	e5 e6       	ldi	r30, 0x65	; 101
     19a:	f0 e0       	ldi	r31, 0x00	; 0
     19c:	80 81       	ld	r24, Z
     19e:	8b 7f       	andi	r24, 0xFB	; 251
     1a0:	80 83       	st	Z, r24
     1a2:	80 81       	ld	r24, Z
     1a4:	8d 7f       	andi	r24, 0xFD	; 253
     1a6:	80 83       	st	Z, r24
     1a8:	80 81       	ld	r24, Z
     1aa:	81 60       	ori	r24, 0x01	; 1
     1ac:	80 83       	st	Z, r24
     1ae:	86 ef       	ldi	r24, 0xF6	; 246
     1b0:	8a 95       	dec	r24
     1b2:	f1 f7       	brne	.-4      	; 0x1b0 <DISPLAY_WELCOME_MESSAGE+0xd8>
     1b4:	80 ec       	ldi	r24, 0xC0	; 192
     1b6:	8b bb       	out	0x1b, r24	; 27
     1b8:	86 ef       	ldi	r24, 0xF6	; 246
     1ba:	8a 95       	dec	r24
     1bc:	f1 f7       	brne	.-4      	; 0x1ba <DISPLAY_WELCOME_MESSAGE+0xe2>
     1be:	80 81       	ld	r24, Z
     1c0:	8e 7f       	andi	r24, 0xFE	; 254
     1c2:	80 83       	st	Z, r24
     1c4:	a0 eb       	ldi	r26, 0xB0	; 176
     1c6:	b1 e0       	ldi	r27, 0x01	; 1
     1c8:	22 c0       	rjmp	.+68     	; 0x20e <DISPLAY_WELCOME_MESSAGE+0x136>
     1ca:	11 96       	adiw	r26, 0x01	; 1
     1cc:	81 e0       	ldi	r24, 0x01	; 1
     1ce:	06 c0       	rjmp	.+12     	; 0x1dc <DISPLAY_WELCOME_MESSAGE+0x104>
     1d0:	e6 e6       	ldi	r30, 0x66	; 102
     1d2:	fe e0       	ldi	r31, 0x0E	; 14
     1d4:	31 97       	sbiw	r30, 0x01	; 1
     1d6:	f1 f7       	brne	.-4      	; 0x1d4 <DISPLAY_WELCOME_MESSAGE+0xfc>
     1d8:	00 00       	nop
     1da:	82 2f       	mov	r24, r18
     1dc:	2f ef       	ldi	r18, 0xFF	; 255
     1de:	28 0f       	add	r18, r24
     1e0:	81 11       	cpse	r24, r1
     1e2:	f6 cf       	rjmp	.-20     	; 0x1d0 <DISPLAY_WELCOME_MESSAGE+0xf8>
     1e4:	e5 e6       	ldi	r30, 0x65	; 101
     1e6:	f0 e0       	ldi	r31, 0x00	; 0
     1e8:	80 81       	ld	r24, Z
     1ea:	84 60       	ori	r24, 0x04	; 4
     1ec:	80 83       	st	Z, r24
     1ee:	80 81       	ld	r24, Z
     1f0:	8d 7f       	andi	r24, 0xFD	; 253
     1f2:	80 83       	st	Z, r24
     1f4:	80 81       	ld	r24, Z
     1f6:	81 60       	ori	r24, 0x01	; 1
     1f8:	80 83       	st	Z, r24
     1fa:	86 ef       	ldi	r24, 0xF6	; 246
     1fc:	8a 95       	dec	r24
     1fe:	f1 f7       	brne	.-4      	; 0x1fc <DISPLAY_WELCOME_MESSAGE+0x124>
     200:	9b bb       	out	0x1b, r25	; 27
     202:	86 ef       	ldi	r24, 0xF6	; 246
     204:	8a 95       	dec	r24
     206:	f1 f7       	brne	.-4      	; 0x204 <DISPLAY_WELCOME_MESSAGE+0x12c>
     208:	80 81       	ld	r24, Z
     20a:	8e 7f       	andi	r24, 0xFE	; 254
     20c:	80 83       	st	Z, r24
     20e:	9c 91       	ld	r25, X
     210:	91 11       	cpse	r25, r1
     212:	db cf       	rjmp	.-74     	; 0x1ca <DISPLAY_WELCOME_MESSAGE+0xf2>
     214:	08 95       	ret

00000216 <Timer1_Init>:
     216:	8e b5       	in	r24, 0x2e	; 46
     218:	88 60       	ori	r24, 0x08	; 8
     21a:	8e bd       	out	0x2e, r24	; 46
     21c:	8e b5       	in	r24, 0x2e	; 46
     21e:	84 60       	ori	r24, 0x04	; 4
     220:	8e bd       	out	0x2e, r24	; 46
     222:	8e b5       	in	r24, 0x2e	; 46
     224:	8c 7f       	andi	r24, 0xFC	; 252
     226:	8e bd       	out	0x2e, r24	; 46
     228:	8f e7       	ldi	r24, 0x7F	; 127
     22a:	96 e1       	ldi	r25, 0x16	; 22
     22c:	9b bd       	out	0x2b, r25	; 43
     22e:	8a bd       	out	0x2a, r24	; 42
     230:	87 b7       	in	r24, 0x37	; 55
     232:	80 61       	ori	r24, 0x10	; 16
     234:	87 bf       	out	0x37, r24	; 55
     236:	08 95       	ret

00000238 <__vector_12>:
     238:	1f 92       	push	r1
     23a:	0f 92       	push	r0
     23c:	0f b6       	in	r0, 0x3f	; 63
     23e:	0f 92       	push	r0
     240:	11 24       	eor	r1, r1
     242:	2f 93       	push	r18
     244:	3f 93       	push	r19
     246:	8f 93       	push	r24
     248:	9f 93       	push	r25
     24a:	83 b3       	in	r24, 0x13	; 19
     24c:	8f 70       	andi	r24, 0x0F	; 15
     24e:	90 91 34 01 	lds	r25, 0x0134	; 0x800134 <prev_key_state.2303>
     252:	9f 30       	cpi	r25, 0x0F	; 15
     254:	a9 f4       	brne	.+42     	; 0x280 <__vector_12+0x48>
     256:	8f 30       	cpi	r24, 0x0F	; 15
     258:	81 f4       	brne	.+32     	; 0x27a <__vector_12+0x42>
     25a:	12 c0       	rjmp	.+36     	; 0x280 <__vector_12+0x48>
     25c:	28 2f       	mov	r18, r24
     25e:	30 e0       	ldi	r19, 0x00	; 0
     260:	09 2e       	mov	r0, r25
     262:	02 c0       	rjmp	.+4      	; 0x268 <__vector_12+0x30>
     264:	35 95       	asr	r19
     266:	27 95       	ror	r18
     268:	0a 94       	dec	r0
     26a:	e2 f7       	brpl	.-8      	; 0x264 <__vector_12+0x2c>
     26c:	20 fd       	sbrc	r18, 0
     26e:	03 c0       	rjmp	.+6      	; 0x276 <__vector_12+0x3e>
     270:	90 93 35 01 	sts	0x0135, r25	; 0x800135 <global_newly_pressed_key>
     274:	05 c0       	rjmp	.+10     	; 0x280 <__vector_12+0x48>
     276:	9f 5f       	subi	r25, 0xFF	; 255
     278:	01 c0       	rjmp	.+2      	; 0x27c <__vector_12+0x44>
     27a:	90 e0       	ldi	r25, 0x00	; 0
     27c:	94 30       	cpi	r25, 0x04	; 4
     27e:	74 f3       	brlt	.-36     	; 0x25c <__vector_12+0x24>
     280:	80 93 34 01 	sts	0x0134, r24	; 0x800134 <prev_key_state.2303>
     284:	9f 91       	pop	r25
     286:	8f 91       	pop	r24
     288:	3f 91       	pop	r19
     28a:	2f 91       	pop	r18
     28c:	0f 90       	pop	r0
     28e:	0f be       	out	0x3f, r0	; 63
     290:	0f 90       	pop	r0
     292:	1f 90       	pop	r1
     294:	18 95       	reti

00000296 <Timer3_Init>:
     296:	ea e8       	ldi	r30, 0x8A	; 138
     298:	f0 e0       	ldi	r31, 0x00	; 0
     29a:	80 81       	ld	r24, Z
     29c:	88 60       	ori	r24, 0x08	; 8
     29e:	80 83       	st	Z, r24
     2a0:	80 81       	ld	r24, Z
     2a2:	85 60       	ori	r24, 0x05	; 5
     2a4:	80 83       	st	Z, r24
     2a6:	8f e8       	ldi	r24, 0x8F	; 143
     2a8:	90 e0       	ldi	r25, 0x00	; 0
     2aa:	90 93 87 00 	sts	0x0087, r25	; 0x800087 <__TEXT_REGION_LENGTH__+0x7e0087>
     2ae:	80 93 86 00 	sts	0x0086, r24	; 0x800086 <__TEXT_REGION_LENGTH__+0x7e0086>
     2b2:	ed e7       	ldi	r30, 0x7D	; 125
     2b4:	f0 e0       	ldi	r31, 0x00	; 0
     2b6:	80 81       	ld	r24, Z
     2b8:	80 61       	ori	r24, 0x10	; 16
     2ba:	80 83       	st	Z, r24
     2bc:	08 95       	ret

000002be <__vector_26>:
     2be:	1f 92       	push	r1
     2c0:	0f 92       	push	r0
     2c2:	0f b6       	in	r0, 0x3f	; 63
     2c4:	0f 92       	push	r0
     2c6:	11 24       	eor	r1, r1
     2c8:	2f 93       	push	r18
     2ca:	3f 93       	push	r19
     2cc:	4f 93       	push	r20
     2ce:	5f 93       	push	r21
     2d0:	6f 93       	push	r22
     2d2:	7f 93       	push	r23
     2d4:	8f 93       	push	r24
     2d6:	9f 93       	push	r25
     2d8:	af 93       	push	r26
     2da:	bf 93       	push	r27
     2dc:	80 91 dc 01 	lds	r24, 0x01DC	; 0x8001dc <timer3_10ms_cnt.2317>
     2e0:	90 91 dd 01 	lds	r25, 0x01DD	; 0x8001dd <timer3_10ms_cnt.2317+0x1>
     2e4:	01 96       	adiw	r24, 0x01	; 1
     2e6:	90 93 dd 01 	sts	0x01DD, r25	; 0x8001dd <timer3_10ms_cnt.2317+0x1>
     2ea:	80 93 dc 01 	sts	0x01DC, r24	; 0x8001dc <timer3_10ms_cnt.2317>
     2ee:	84 36       	cpi	r24, 0x64	; 100
     2f0:	91 05       	cpc	r25, r1
     2f2:	68 f0       	brcs	.+26     	; 0x30e <__vector_26+0x50>
     2f4:	80 91 e0 01 	lds	r24, 0x01E0	; 0x8001e0 <global_timer_sec>
     2f8:	90 91 e1 01 	lds	r25, 0x01E1	; 0x8001e1 <global_timer_sec+0x1>
     2fc:	01 96       	adiw	r24, 0x01	; 1
     2fe:	90 93 e1 01 	sts	0x01E1, r25	; 0x8001e1 <global_timer_sec+0x1>
     302:	80 93 e0 01 	sts	0x01E0, r24	; 0x8001e0 <global_timer_sec>
     306:	10 92 dd 01 	sts	0x01DD, r1	; 0x8001dd <timer3_10ms_cnt.2317+0x1>
     30a:	10 92 dc 01 	sts	0x01DC, r1	; 0x8001dc <timer3_10ms_cnt.2317>
     30e:	40 91 dc 01 	lds	r20, 0x01DC	; 0x8001dc <timer3_10ms_cnt.2317>
     312:	50 91 dd 01 	lds	r21, 0x01DD	; 0x8001dd <timer3_10ms_cnt.2317+0x1>
     316:	9a 01       	movw	r18, r20
     318:	ad ec       	ldi	r26, 0xCD	; 205
     31a:	bc ec       	ldi	r27, 0xCC	; 204
     31c:	0e 94 5c 0b 	call	0x16b8	; 0x16b8 <__umulhisi3>
     320:	96 95       	lsr	r25
     322:	87 95       	ror	r24
     324:	96 95       	lsr	r25
     326:	87 95       	ror	r24
     328:	96 95       	lsr	r25
     32a:	87 95       	ror	r24
     32c:	9c 01       	movw	r18, r24
     32e:	22 0f       	add	r18, r18
     330:	33 1f       	adc	r19, r19
     332:	88 0f       	add	r24, r24
     334:	99 1f       	adc	r25, r25
     336:	88 0f       	add	r24, r24
     338:	99 1f       	adc	r25, r25
     33a:	88 0f       	add	r24, r24
     33c:	99 1f       	adc	r25, r25
     33e:	82 0f       	add	r24, r18
     340:	93 1f       	adc	r25, r19
     342:	48 17       	cp	r20, r24
     344:	59 07       	cpc	r21, r25
     346:	49 f4       	brne	.+18     	; 0x35a <__vector_26+0x9c>
     348:	80 91 de 01 	lds	r24, 0x01DE	; 0x8001de <global_timer_100ms>
     34c:	90 91 df 01 	lds	r25, 0x01DF	; 0x8001df <global_timer_100ms+0x1>
     350:	01 96       	adiw	r24, 0x01	; 1
     352:	90 93 df 01 	sts	0x01DF, r25	; 0x8001df <global_timer_100ms+0x1>
     356:	80 93 de 01 	sts	0x01DE, r24	; 0x8001de <global_timer_100ms>
     35a:	bf 91       	pop	r27
     35c:	af 91       	pop	r26
     35e:	9f 91       	pop	r25
     360:	8f 91       	pop	r24
     362:	7f 91       	pop	r23
     364:	6f 91       	pop	r22
     366:	5f 91       	pop	r21
     368:	4f 91       	pop	r20
     36a:	3f 91       	pop	r19
     36c:	2f 91       	pop	r18
     36e:	0f 90       	pop	r0
     370:	0f be       	out	0x3f, r0	; 63
     372:	0f 90       	pop	r0
     374:	1f 90       	pop	r1
     376:	18 95       	reti

00000378 <LCD_Clear_one_row>:
     378:	98 2f       	mov	r25, r24
     37a:	92 95       	swap	r25
     37c:	99 0f       	add	r25, r25
     37e:	99 0f       	add	r25, r25
     380:	90 7c       	andi	r25, 0xC0	; 192
     382:	90 68       	ori	r25, 0x80	; 128
     384:	e5 e6       	ldi	r30, 0x65	; 101
     386:	f0 e0       	ldi	r31, 0x00	; 0
     388:	20 81       	ld	r18, Z
     38a:	2b 7f       	andi	r18, 0xFB	; 251
     38c:	20 83       	st	Z, r18
     38e:	20 81       	ld	r18, Z
     390:	2d 7f       	andi	r18, 0xFD	; 253
     392:	20 83       	st	Z, r18
     394:	20 81       	ld	r18, Z
     396:	21 60       	ori	r18, 0x01	; 1
     398:	20 83       	st	Z, r18
     39a:	26 ef       	ldi	r18, 0xF6	; 246
     39c:	2a 95       	dec	r18
     39e:	f1 f7       	brne	.-4      	; 0x39c <LCD_Clear_one_row+0x24>
     3a0:	9b bb       	out	0x1b, r25	; 27
     3a2:	96 ef       	ldi	r25, 0xF6	; 246
     3a4:	9a 95       	dec	r25
     3a6:	f1 f7       	brne	.-4      	; 0x3a4 <LCD_Clear_one_row+0x2c>
     3a8:	90 81       	ld	r25, Z
     3aa:	9e 7f       	andi	r25, 0xFE	; 254
     3ac:	90 83       	st	Z, r25
     3ae:	20 e0       	ldi	r18, 0x00	; 0
     3b0:	23 c0       	rjmp	.+70     	; 0x3f8 <LCD_Clear_one_row+0x80>
     3b2:	e6 e6       	ldi	r30, 0x66	; 102
     3b4:	fe e0       	ldi	r31, 0x0E	; 14
     3b6:	31 97       	sbiw	r30, 0x01	; 1
     3b8:	f1 f7       	brne	.-4      	; 0x3b6 <LCD_Clear_one_row+0x3e>
     3ba:	00 00       	nop
     3bc:	93 2f       	mov	r25, r19
     3be:	01 c0       	rjmp	.+2      	; 0x3c2 <LCD_Clear_one_row+0x4a>
     3c0:	91 e0       	ldi	r25, 0x01	; 1
     3c2:	3f ef       	ldi	r19, 0xFF	; 255
     3c4:	39 0f       	add	r19, r25
     3c6:	91 11       	cpse	r25, r1
     3c8:	f4 cf       	rjmp	.-24     	; 0x3b2 <LCD_Clear_one_row+0x3a>
     3ca:	e5 e6       	ldi	r30, 0x65	; 101
     3cc:	f0 e0       	ldi	r31, 0x00	; 0
     3ce:	90 81       	ld	r25, Z
     3d0:	94 60       	ori	r25, 0x04	; 4
     3d2:	90 83       	st	Z, r25
     3d4:	90 81       	ld	r25, Z
     3d6:	9d 7f       	andi	r25, 0xFD	; 253
     3d8:	90 83       	st	Z, r25
     3da:	90 81       	ld	r25, Z
     3dc:	91 60       	ori	r25, 0x01	; 1
     3de:	90 83       	st	Z, r25
     3e0:	96 ef       	ldi	r25, 0xF6	; 246
     3e2:	9a 95       	dec	r25
     3e4:	f1 f7       	brne	.-4      	; 0x3e2 <LCD_Clear_one_row+0x6a>
     3e6:	90 e2       	ldi	r25, 0x20	; 32
     3e8:	9b bb       	out	0x1b, r25	; 27
     3ea:	96 ef       	ldi	r25, 0xF6	; 246
     3ec:	9a 95       	dec	r25
     3ee:	f1 f7       	brne	.-4      	; 0x3ec <LCD_Clear_one_row+0x74>
     3f0:	90 81       	ld	r25, Z
     3f2:	9e 7f       	andi	r25, 0xFE	; 254
     3f4:	90 83       	st	Z, r25
     3f6:	2f 5f       	subi	r18, 0xFF	; 255
     3f8:	20 31       	cpi	r18, 0x10	; 16
     3fa:	10 f3       	brcs	.-60     	; 0x3c0 <LCD_Clear_one_row+0x48>
     3fc:	82 95       	swap	r24
     3fe:	88 0f       	add	r24, r24
     400:	88 0f       	add	r24, r24
     402:	80 7c       	andi	r24, 0xC0	; 192
     404:	80 68       	ori	r24, 0x80	; 128
     406:	e5 e6       	ldi	r30, 0x65	; 101
     408:	f0 e0       	ldi	r31, 0x00	; 0
     40a:	90 81       	ld	r25, Z
     40c:	9b 7f       	andi	r25, 0xFB	; 251
     40e:	90 83       	st	Z, r25
     410:	90 81       	ld	r25, Z
     412:	9d 7f       	andi	r25, 0xFD	; 253
     414:	90 83       	st	Z, r25
     416:	90 81       	ld	r25, Z
     418:	91 60       	ori	r25, 0x01	; 1
     41a:	90 83       	st	Z, r25
     41c:	26 ef       	ldi	r18, 0xF6	; 246
     41e:	2a 95       	dec	r18
     420:	f1 f7       	brne	.-4      	; 0x41e <__LOCK_REGION_LENGTH__+0x1e>
     422:	8b bb       	out	0x1b, r24	; 27
     424:	86 ef       	ldi	r24, 0xF6	; 246
     426:	8a 95       	dec	r24
     428:	f1 f7       	brne	.-4      	; 0x426 <__LOCK_REGION_LENGTH__+0x26>
     42a:	80 81       	ld	r24, Z
     42c:	8e 7f       	andi	r24, 0xFE	; 254
     42e:	80 83       	st	Z, r24
     430:	08 95       	ret

00000432 <process_pc_button_0>:
	static uint16_t last_execution_time = 0;
	static uint8_t local_lcd_column_pose = 0;

	// Ìï®Ïàò Ï§ëÎ≥µ Ìò∏Ï∂ú ÌòπÏùÄ Îã§Î•∏ Ïã§Ìñâ Ìï®ÏàòÏóêÏÑú ÎÑòÏñ¥Ïò® Í≤ΩÏö∞
	// static Î≥ÄÏàòÎ°ú ÏÑ†Ïñ∏ÎêòÏñ¥ Ï†ÄÏû•Îêú Î≥ÄÏàòÎì§ÏùÑ Ï¥àÍ∏∞ÌôîÌïòÎäî Í≥ºÏ†ï
	if((param_program_status != param_previous_program_status))
     432:	86 17       	cp	r24, r22
     434:	b1 f0       	breq	.+44     	; 0x462 <process_pc_button_0+0x30>
	{
		// reset static variables when not in STATUS_SEND_A
		send_count = 0;
     436:	10 92 db 01 	sts	0x01DB, r1	; 0x8001db <send_count.2341>
		// last_execution_time = 0;
		local_lcd_column_pose = 0;
     43a:	10 92 da 01 	sts	0x01DA, r1	; 0x8001da <local_lcd_column_pose.2343>

		LCD_Clear_one_row(0);
     43e:	80 e0       	ldi	r24, 0x00	; 0
     440:	9b df       	rcall	.-202    	; 0x378 <LCD_Clear_one_row>
		LCD_Clear_one_row(1);
     442:	81 e0       	ldi	r24, 0x01	; 1
     444:	99 df       	rcall	.-206    	; 0x378 <LCD_Clear_one_row>
     446:	e6 e3       	ldi	r30, 0x36	; 54
     448:	f1 e0       	ldi	r31, 0x01	; 1
     44a:	07 c0       	rjmp	.+14     	; 0x45a <process_pc_button_0+0x28>
}

static inline void puts_USART1(char *str)
{
    while (*str != 0) {
        putch_USART1(*str++);
     44c:	31 96       	adiw	r30, 0x01	; 1
    UCSR1C = _BV(UCSZ11) | _BV(UCSZ10); // 8N1
}

static inline void putch_USART1(char data)
{
    while (!(UCSR1A & _BV(UDRE1))) {;}
     44e:	80 91 9b 00 	lds	r24, 0x009B	; 0x80009b <__TEXT_REGION_LENGTH__+0x7e009b>
     452:	85 ff       	sbrs	r24, 5
     454:	fc cf       	rjmp	.-8      	; 0x44e <process_pc_button_0+0x1c>
    UDR1 = data;
     456:	90 93 9c 00 	sts	0x009C, r25	; 0x80009c <__TEXT_REGION_LENGTH__+0x7e009c>
}

static inline void puts_USART1(char *str)
{
    while (*str != 0) {
     45a:	90 81       	ld	r25, Z
     45c:	91 11       	cpse	r25, r1
     45e:	f6 cf       	rjmp	.-20     	; 0x44c <process_pc_button_0+0x1a>
     460:	08 95       	ret
		param_previous_program_status = param_program_status;
	}
	else // continue
	
	// if(global_timer_sec - last_execution_time >= SENDING_PERIOD_SEC) // every SENDING_PERIOD_SEC seconds(1sec)
	if(global_timer_100ms - last_execution_time >= SENDING_PERIOD_100MS * 5) // every SENDING_PERIOD_100MS seconds
     462:	80 91 de 01 	lds	r24, 0x01DE	; 0x8001de <global_timer_100ms>
     466:	90 91 df 01 	lds	r25, 0x01DF	; 0x8001df <global_timer_100ms+0x1>
     46a:	20 91 d8 01 	lds	r18, 0x01D8	; 0x8001d8 <last_execution_time.2342>
     46e:	30 91 d9 01 	lds	r19, 0x01D9	; 0x8001d9 <last_execution_time.2342+0x1>
     472:	82 1b       	sub	r24, r18
     474:	93 0b       	sbc	r25, r19
     476:	05 97       	sbiw	r24, 0x05	; 5
     478:	08 f4       	brcc	.+2      	; 0x47c <process_pc_button_0+0x4a>
     47a:	6d c1       	rjmp	.+730    	; 0x756 <process_pc_button_0+0x324>
	{
		// last_execution_time = global_timer_sec;
		last_execution_time = global_timer_100ms;
     47c:	80 91 de 01 	lds	r24, 0x01DE	; 0x8001de <global_timer_100ms>
     480:	90 91 df 01 	lds	r25, 0x01DF	; 0x8001df <global_timer_100ms+0x1>
     484:	90 93 d9 01 	sts	0x01D9, r25	; 0x8001d9 <last_execution_time.2342+0x1>
     488:	80 93 d8 01 	sts	0x01D8, r24	; 0x8001d8 <last_execution_time.2342>
}

// START
static inline uint8_t TWI_Start(void)
{
    TWCR = (1<<TWINT) | (1<<TWSTA) | (1<<TWEN);	// START Ω≈»£ ∫∏≥ª±‚
     48c:	84 ea       	ldi	r24, 0xA4	; 164
     48e:	80 93 74 00 	sts	0x0074, r24	; 0x800074 <__TEXT_REGION_LENGTH__+0x7e0074>
// Ω≈»£ ¿¸º€ øœ∑· ∞ÀªÁ π◊ Status »Æ¿Œ + Timeout Check 
// Error code: 0=no error, 1=timeout, 2=status mismatch

static inline uint8_t TWI_TransCheck_ACK(uint8_t Stat)
{
    uint16_t cnt = 0;
     492:	80 e0       	ldi	r24, 0x00	; 0
     494:	90 e0       	ldi	r25, 0x00	; 0
     496:	07 c0       	rjmp	.+14     	; 0x4a6 <process_pc_button_0+0x74>
    while (!(TWCR & (1<<TWINT)))				// ∆–≈∂ ¿¸º€ øœ∑·µ… ∂ß ±Ó¡ˆ wait
	{				
        if (cnt++ > ExtDev_ERR_MAX_CNT) return 1; // timeout
     498:	9c 01       	movw	r18, r24
     49a:	2f 5f       	subi	r18, 0xFF	; 255
     49c:	3f 4f       	sbci	r19, 0xFF	; 255
     49e:	81 3d       	cpi	r24, 0xD1	; 209
     4a0:	97 40       	sbci	r25, 0x07	; 7
     4a2:	60 f4       	brcc	.+24     	; 0x4bc <process_pc_button_0+0x8a>
     4a4:	c9 01       	movw	r24, r18
// Error code: 0=no error, 1=timeout, 2=status mismatch

static inline uint8_t TWI_TransCheck_ACK(uint8_t Stat)
{
    uint16_t cnt = 0;
    while (!(TWCR & (1<<TWINT)))				// ∆–≈∂ ¿¸º€ øœ∑·µ… ∂ß ±Ó¡ˆ wait
     4a6:	20 91 74 00 	lds	r18, 0x0074	; 0x800074 <__TEXT_REGION_LENGTH__+0x7e0074>
     4aa:	22 23       	and	r18, r18
     4ac:	ac f7       	brge	.-22     	; 0x498 <process_pc_button_0+0x66>
	{				
        if (cnt++ > ExtDev_ERR_MAX_CNT) return 1; // timeout
    }
    if ((TWSR & 0xF8) != Stat) return 2;         // status mismatch, ¿¸º€ ∞ÀªÁ error(2 π›»Ø)
     4ae:	80 91 71 00 	lds	r24, 0x0071	; 0x800071 <__TEXT_REGION_LENGTH__+0x7e0071>
     4b2:	88 7f       	andi	r24, 0xF8	; 248
     4b4:	88 30       	cpi	r24, 0x08	; 8
     4b6:	21 f0       	breq	.+8      	; 0x4c0 <process_pc_button_0+0x8e>
     4b8:	42 e0       	ldi	r20, 0x02	; 2
     4ba:	03 c0       	rjmp	.+6      	; 0x4c2 <process_pc_button_0+0x90>
static inline uint8_t TWI_TransCheck_ACK(uint8_t Stat)
{
    uint16_t cnt = 0;
    while (!(TWCR & (1<<TWINT)))				// ∆–≈∂ ¿¸º€ øœ∑·µ… ∂ß ±Ó¡ˆ wait
	{				
        if (cnt++ > ExtDev_ERR_MAX_CNT) return 1; // timeout
     4bc:	41 e0       	ldi	r20, 0x01	; 1
     4be:	01 c0       	rjmp	.+2      	; 0x4c2 <process_pc_button_0+0x90>
    }
    if ((TWSR & 0xF8) != Stat) return 2;         // status mismatch, ¿¸º€ ∞ÀªÁ error(2 π›»Ø)
    return 0;
     4c0:	40 e0       	ldi	r20, 0x00	; 0

// Master transmit one byte
static inline uint8_t TWI_Master_Transmit(uint8_t Data, uint8_t Addr)
{
    uint8_t ret = TWI_Start();
    if (ret) return ret;
     4c2:	41 11       	cpse	r20, r1
     4c4:	3f c0       	rjmp	.+126    	; 0x544 <process_pc_button_0+0x112>
}

// SLA+W
static inline uint8_t TWI_Write_SLAW(uint8_t Addr)
{
    TWDR = Addr;							// 8-bit slave address (W bit assumed in Addr)
     4c6:	88 e0       	ldi	r24, 0x08	; 8
     4c8:	80 93 73 00 	sts	0x0073, r24	; 0x800073 <__TEXT_REGION_LENGTH__+0x7e0073>
    TWCR = (1<<TWINT) | (1<<TWEN);			// SLA + W ∆–≈∂ ∫∏≥ª±‚  
     4cc:	84 e8       	ldi	r24, 0x84	; 132
     4ce:	80 93 74 00 	sts	0x0074, r24	; 0x800074 <__TEXT_REGION_LENGTH__+0x7e0074>
// Ω≈»£ ¿¸º€ øœ∑· ∞ÀªÁ π◊ Status »Æ¿Œ + Timeout Check 
// Error code: 0=no error, 1=timeout, 2=status mismatch

static inline uint8_t TWI_TransCheck_ACK(uint8_t Stat)
{
    uint16_t cnt = 0;
     4d2:	80 e0       	ldi	r24, 0x00	; 0
     4d4:	90 e0       	ldi	r25, 0x00	; 0
     4d6:	07 c0       	rjmp	.+14     	; 0x4e6 <process_pc_button_0+0xb4>
    while (!(TWCR & (1<<TWINT)))				// ∆–≈∂ ¿¸º€ øœ∑·µ… ∂ß ±Ó¡ˆ wait
	{				
        if (cnt++ > ExtDev_ERR_MAX_CNT) return 1; // timeout
     4d8:	9c 01       	movw	r18, r24
     4da:	2f 5f       	subi	r18, 0xFF	; 255
     4dc:	3f 4f       	sbci	r19, 0xFF	; 255
     4de:	81 3d       	cpi	r24, 0xD1	; 209
     4e0:	97 40       	sbci	r25, 0x07	; 7
     4e2:	60 f4       	brcc	.+24     	; 0x4fc <process_pc_button_0+0xca>
     4e4:	c9 01       	movw	r24, r18
// Error code: 0=no error, 1=timeout, 2=status mismatch

static inline uint8_t TWI_TransCheck_ACK(uint8_t Stat)
{
    uint16_t cnt = 0;
    while (!(TWCR & (1<<TWINT)))				// ∆–≈∂ ¿¸º€ øœ∑·µ… ∂ß ±Ó¡ˆ wait
     4e6:	20 91 74 00 	lds	r18, 0x0074	; 0x800074 <__TEXT_REGION_LENGTH__+0x7e0074>
     4ea:	22 23       	and	r18, r18
     4ec:	ac f7       	brge	.-22     	; 0x4d8 <process_pc_button_0+0xa6>
	{				
        if (cnt++ > ExtDev_ERR_MAX_CNT) return 1; // timeout
    }
    if ((TWSR & 0xF8) != Stat) return 2;         // status mismatch, ¿¸º€ ∞ÀªÁ error(2 π›»Ø)
     4ee:	80 91 71 00 	lds	r24, 0x0071	; 0x800071 <__TEXT_REGION_LENGTH__+0x7e0071>
     4f2:	88 7f       	andi	r24, 0xF8	; 248
     4f4:	88 31       	cpi	r24, 0x18	; 24
     4f6:	19 f0       	breq	.+6      	; 0x4fe <process_pc_button_0+0xcc>
     4f8:	42 e0       	ldi	r20, 0x02	; 2
     4fa:	01 c0       	rjmp	.+2      	; 0x4fe <process_pc_button_0+0xcc>
static inline uint8_t TWI_TransCheck_ACK(uint8_t Stat)
{
    uint16_t cnt = 0;
    while (!(TWCR & (1<<TWINT)))				// ∆–≈∂ ¿¸º€ øœ∑·µ… ∂ß ±Ó¡ˆ wait
	{				
        if (cnt++ > ExtDev_ERR_MAX_CNT) return 1; // timeout
     4fc:	41 e0       	ldi	r20, 0x01	; 1
static inline uint8_t TWI_Master_Transmit(uint8_t Data, uint8_t Addr)
{
    uint8_t ret = TWI_Start();
    if (ret) return ret;
    ret = TWI_Write_SLAW(Addr);
    if (ret) return ret;
     4fe:	41 11       	cpse	r20, r1
     500:	21 c0       	rjmp	.+66     	; 0x544 <process_pc_button_0+0x112>
}

// DATA (write), µ•¿Ã≈Õ ∆–≈∂ ¿¸º€
static inline uint8_t TWI_Write_Data(uint8_t Data)
{
    TWDR = Data;
     502:	81 e4       	ldi	r24, 0x41	; 65
     504:	80 93 73 00 	sts	0x0073, r24	; 0x800073 <__TEXT_REGION_LENGTH__+0x7e0073>
    TWCR = (1<<TWINT) | (1<<TWEN);		   // µ•¿Ã≈Õ ∆–≈∂ º€Ω≈
     508:	84 e8       	ldi	r24, 0x84	; 132
     50a:	80 93 74 00 	sts	0x0074, r24	; 0x800074 <__TEXT_REGION_LENGTH__+0x7e0074>
// Ω≈»£ ¿¸º€ øœ∑· ∞ÀªÁ π◊ Status »Æ¿Œ + Timeout Check 
// Error code: 0=no error, 1=timeout, 2=status mismatch

static inline uint8_t TWI_TransCheck_ACK(uint8_t Stat)
{
    uint16_t cnt = 0;
     50e:	80 e0       	ldi	r24, 0x00	; 0
     510:	90 e0       	ldi	r25, 0x00	; 0
     512:	07 c0       	rjmp	.+14     	; 0x522 <process_pc_button_0+0xf0>
    while (!(TWCR & (1<<TWINT)))				// ∆–≈∂ ¿¸º€ øœ∑·µ… ∂ß ±Ó¡ˆ wait
	{				
        if (cnt++ > ExtDev_ERR_MAX_CNT) return 1; // timeout
     514:	9c 01       	movw	r18, r24
     516:	2f 5f       	subi	r18, 0xFF	; 255
     518:	3f 4f       	sbci	r19, 0xFF	; 255
     51a:	81 3d       	cpi	r24, 0xD1	; 209
     51c:	97 40       	sbci	r25, 0x07	; 7
     51e:	60 f4       	brcc	.+24     	; 0x538 <process_pc_button_0+0x106>
     520:	c9 01       	movw	r24, r18
// Error code: 0=no error, 1=timeout, 2=status mismatch

static inline uint8_t TWI_TransCheck_ACK(uint8_t Stat)
{
    uint16_t cnt = 0;
    while (!(TWCR & (1<<TWINT)))				// ∆–≈∂ ¿¸º€ øœ∑·µ… ∂ß ±Ó¡ˆ wait
     522:	20 91 74 00 	lds	r18, 0x0074	; 0x800074 <__TEXT_REGION_LENGTH__+0x7e0074>
     526:	22 23       	and	r18, r18
     528:	ac f7       	brge	.-22     	; 0x514 <process_pc_button_0+0xe2>
	{				
        if (cnt++ > ExtDev_ERR_MAX_CNT) return 1; // timeout
    }
    if ((TWSR & 0xF8) != Stat) return 2;         // status mismatch, ¿¸º€ ∞ÀªÁ error(2 π›»Ø)
     52a:	80 91 71 00 	lds	r24, 0x0071	; 0x800071 <__TEXT_REGION_LENGTH__+0x7e0071>
     52e:	88 7f       	andi	r24, 0xF8	; 248
     530:	88 32       	cpi	r24, 0x28	; 40
     532:	19 f0       	breq	.+6      	; 0x53a <process_pc_button_0+0x108>
     534:	42 e0       	ldi	r20, 0x02	; 2
     536:	01 c0       	rjmp	.+2      	; 0x53a <process_pc_button_0+0x108>
static inline uint8_t TWI_TransCheck_ACK(uint8_t Stat)
{
    uint16_t cnt = 0;
    while (!(TWCR & (1<<TWINT)))				// ∆–≈∂ ¿¸º€ øœ∑·µ… ∂ß ±Ó¡ˆ wait
	{				
        if (cnt++ > ExtDev_ERR_MAX_CNT) return 1; // timeout
     538:	41 e0       	ldi	r20, 0x01	; 1
    uint8_t ret = TWI_Start();
    if (ret) return ret;
    ret = TWI_Write_SLAW(Addr);
    if (ret) return ret;
    ret = TWI_Write_Data(Data);
    if (ret) return ret;
     53a:	41 11       	cpse	r20, r1
     53c:	03 c0       	rjmp	.+6      	; 0x544 <process_pc_button_0+0x112>
}

// STOP
static inline void TWI_Stop(void)
{
    TWCR = (1<<TWINT) | (1<<TWSTO) | (1<<TWEN);
     53e:	84 e9       	ldi	r24, 0x94	; 148
     540:	80 93 74 00 	sts	0x0074, r24	; 0x800074 <__TEXT_REGION_LENGTH__+0x7e0074>
		twi_result = TWI_Master_Transmit('A', SLAVE_ADDR);
		// sprintf((char*)global_usart_send_msg_buffer, "%3d sec\r\n", global_timer_sec);
		// puts_USART1((char*)global_usart_send_msg_buffer); // send current seconds to USART1
		if(twi_result == 0)
     544:	41 11       	cpse	r20, r1
     546:	db c0       	rjmp	.+438    	; 0x6fe <process_pc_button_0+0x2cc>
    LCD_CTRL &= ~(1 << LCD_EN);   // E low
}

static inline void LCD_Comm(uint8_t command)
{
    LCD_CTRL &= ~(1 << LCD_RS);   // RS=0 -> command
     548:	e5 e6       	ldi	r30, 0x65	; 101
     54a:	f0 e0       	ldi	r31, 0x00	; 0
     54c:	80 81       	ld	r24, Z
     54e:	8b 7f       	andi	r24, 0xFB	; 251
     550:	80 83       	st	Z, r24
    LCD_CTRL &= ~(1 << LCD_RW);   // RW=0 -> write
     552:	80 81       	ld	r24, Z
     554:	8d 7f       	andi	r24, 0xFD	; 253
     556:	80 83       	st	Z, r24
    LCD_CTRL |= (1 << LCD_EN);    // E high
     558:	80 81       	ld	r24, Z
     55a:	81 60       	ori	r24, 0x01	; 1
     55c:	80 83       	st	Z, r24
	#else
		//round up by default
		__ticks_dc = (uint32_t)(ceil(fabs(__tmp)));
	#endif

	__builtin_avr_delay_cycles(__ticks_dc);
     55e:	46 ef       	ldi	r20, 0xF6	; 246
     560:	4a 95       	dec	r20
     562:	f1 f7       	brne	.-4      	; 0x560 <process_pc_button_0+0x12e>
    _delay_us(50);
    LCD_WINST = command;          // put command
     564:	80 e8       	ldi	r24, 0x80	; 128
     566:	8b bb       	out	0x1b, r24	; 27
     568:	56 ef       	ldi	r21, 0xF6	; 246
     56a:	5a 95       	dec	r21
     56c:	f1 f7       	brne	.-4      	; 0x56a <process_pc_button_0+0x138>
    _delay_us(50);
    LCD_CTRL &= ~(1 << LCD_EN);   // E low
     56e:	80 81       	ld	r24, Z
     570:	8e 7f       	andi	r24, 0xFE	; 254
     572:	80 83       	st	Z, r24
		// 16Î≤àÏß∏ Í∏ÄÏûê Ï†ÑÏÜ° Ïãú lcd 1 row Ï¥àÍ∏∞Ìôî Î∞è (1,0) Ïª§ÏÑú Ï¢åÌëú Ïù¥Îèô
		// Í∑∏Î¶¨Í≥† 17Î≤àÏß∏ Í∏ÄÏûê Ï∂úÎ†• ÌõÑ Ïª§ÏÑú Ï¢åÌëú++ÏùÑ ÏàòÌñâÌï®.
		{
			LCD_Pos(0, 0);
			sprintf((char*)global_lcd_row_1, "TX count: %d", ++send_count);
     574:	80 91 db 01 	lds	r24, 0x01DB	; 0x8001db <send_count.2341>
     578:	8f 5f       	subi	r24, 0xFF	; 255
     57a:	80 93 db 01 	sts	0x01DB, r24	; 0x8001db <send_count.2341>
     57e:	1f 92       	push	r1
     580:	8f 93       	push	r24
     582:	8f e4       	ldi	r24, 0x4F	; 79
     584:	91 e0       	ldi	r25, 0x01	; 1
     586:	9f 93       	push	r25
     588:	8f 93       	push	r24
     58a:	81 ee       	ldi	r24, 0xE1	; 225
     58c:	92 e0       	ldi	r25, 0x02	; 2
     58e:	9f 93       	push	r25
     590:	8f 93       	push	r24
     592:	0e 94 6b 0b 	call	0x16d6	; 0x16d6 <sprintf>
     596:	0f 90       	pop	r0
     598:	0f 90       	pop	r0
     59a:	0f 90       	pop	r0
     59c:	0f 90       	pop	r0
     59e:	0f 90       	pop	r0
     5a0:	0f 90       	pop	r0
     5a2:	a1 ee       	ldi	r26, 0xE1	; 225
     5a4:	b2 e0       	ldi	r27, 0x02	; 2
     5a6:	22 c0       	rjmp	.+68     	; 0x5ec <process_pc_button_0+0x1ba>
}

static inline void LCD_Str(const char *str)
{
    while (*str != 0) {
        LCD_Char((uint8_t)*str++);
     5a8:	11 96       	adiw	r26, 0x01	; 1
     5aa:	81 e0       	ldi	r24, 0x01	; 1
     5ac:	06 c0       	rjmp	.+12     	; 0x5ba <process_pc_button_0+0x188>
	#else
		//round up by default
		__ticks_dc = (uint32_t)(ceil(fabs(__tmp)));
	#endif

	__builtin_avr_delay_cycles(__ticks_dc);
     5ae:	e6 e6       	ldi	r30, 0x66	; 102
     5b0:	fe e0       	ldi	r31, 0x0E	; 14
     5b2:	31 97       	sbiw	r30, 0x01	; 1
     5b4:	f1 f7       	brne	.-4      	; 0x5b2 <process_pc_button_0+0x180>
     5b6:	00 00       	nop
    LCD_CTRL &= ~(1 << LCD_EN);   // E low
}

static inline void LCD_Delay(uint8_t ms)
{
    while (ms--) _delay_ms(1);
     5b8:	82 2f       	mov	r24, r18
     5ba:	2f ef       	ldi	r18, 0xFF	; 255
     5bc:	28 0f       	add	r18, r24
     5be:	81 11       	cpse	r24, r1
     5c0:	f6 cf       	rjmp	.-20     	; 0x5ae <process_pc_button_0+0x17c>
static inline void LCD_Cursor_Shift(uint8_t p);
static inline void LCD_Cursor_Home(void);

static inline void LCD_Data(uint8_t ch)
{
    LCD_CTRL |= (1 << LCD_RS);    // RS=1 -> data
     5c2:	e5 e6       	ldi	r30, 0x65	; 101
     5c4:	f0 e0       	ldi	r31, 0x00	; 0
     5c6:	80 81       	ld	r24, Z
     5c8:	84 60       	ori	r24, 0x04	; 4
     5ca:	80 83       	st	Z, r24
    LCD_CTRL &= ~(1 << LCD_RW);   // RW=0 -> write
     5cc:	80 81       	ld	r24, Z
     5ce:	8d 7f       	andi	r24, 0xFD	; 253
     5d0:	80 83       	st	Z, r24
    LCD_CTRL |= (1 << LCD_EN);    // E high
     5d2:	80 81       	ld	r24, Z
     5d4:	81 60       	ori	r24, 0x01	; 1
     5d6:	80 83       	st	Z, r24
	#else
		//round up by default
		__ticks_dc = (uint32_t)(ceil(fabs(__tmp)));
	#endif

	__builtin_avr_delay_cycles(__ticks_dc);
     5d8:	46 ef       	ldi	r20, 0xF6	; 246
     5da:	4a 95       	dec	r20
     5dc:	f1 f7       	brne	.-4      	; 0x5da <process_pc_button_0+0x1a8>
    _delay_us(50);
    LCD_WDATA = ch;               // put data
     5de:	9b bb       	out	0x1b, r25	; 27
     5e0:	56 ef       	ldi	r21, 0xF6	; 246
     5e2:	5a 95       	dec	r21
     5e4:	f1 f7       	brne	.-4      	; 0x5e2 <process_pc_button_0+0x1b0>
    _delay_us(50);
    LCD_CTRL &= ~(1 << LCD_EN);   // E low
     5e6:	80 81       	ld	r24, Z
     5e8:	8e 7f       	andi	r24, 0xFE	; 254
     5ea:	80 83       	st	Z, r24
    LCD_Data(ch);
}

static inline void LCD_Str(const char *str)
{
    while (*str != 0) {
     5ec:	9c 91       	ld	r25, X
     5ee:	91 11       	cpse	r25, r1
     5f0:	db cf       	rjmp	.-74     	; 0x5a8 <process_pc_button_0+0x176>
			LCD_Str((char*)global_lcd_row_1);
			
			if(local_lcd_column_pose >= 16)
     5f2:	80 91 da 01 	lds	r24, 0x01DA	; 0x8001da <local_lcd_column_pose.2343>
     5f6:	80 31       	cpi	r24, 0x10	; 16
     5f8:	08 f4       	brcc	.+2      	; 0x5fc <process_pc_button_0+0x1ca>
			{
				LCD_Clear_one_row(1);
     5fa:	42 c0       	rjmp	.+132    	; 0x680 <process_pc_button_0+0x24e>
     5fc:	81 e0       	ldi	r24, 0x01	; 1
     5fe:	bc de       	rcall	.-648    	; 0x378 <LCD_Clear_one_row>
				local_lcd_column_pose = 0;
     600:	10 92 da 01 	sts	0x01DA, r1	; 0x8001da <local_lcd_column_pose.2343>
    LCD_CTRL &= ~(1 << LCD_EN);   // E low
}

static inline void LCD_Comm(uint8_t command)
{
    LCD_CTRL &= ~(1 << LCD_RS);   // RS=0 -> command
     604:	e5 e6       	ldi	r30, 0x65	; 101
     606:	f0 e0       	ldi	r31, 0x00	; 0
     608:	80 81       	ld	r24, Z
     60a:	8b 7f       	andi	r24, 0xFB	; 251
     60c:	80 83       	st	Z, r24
    LCD_CTRL &= ~(1 << LCD_RW);   // RW=0 -> write
     60e:	80 81       	ld	r24, Z
     610:	8d 7f       	andi	r24, 0xFD	; 253
     612:	80 83       	st	Z, r24
    LCD_CTRL |= (1 << LCD_EN);    // E high
     614:	80 81       	ld	r24, Z
     616:	81 60       	ori	r24, 0x01	; 1
     618:	80 83       	st	Z, r24
     61a:	86 ef       	ldi	r24, 0xF6	; 246
     61c:	8a 95       	dec	r24
     61e:	f1 f7       	brne	.-4      	; 0x61c <process_pc_button_0+0x1ea>
    _delay_us(50);
    LCD_WINST = command;          // put command
     620:	80 ec       	ldi	r24, 0xC0	; 192
     622:	8b bb       	out	0x1b, r24	; 27
     624:	96 ef       	ldi	r25, 0xF6	; 246
     626:	9a 95       	dec	r25
     628:	f1 f7       	brne	.-4      	; 0x626 <process_pc_button_0+0x1f4>
    _delay_us(50);
    LCD_CTRL &= ~(1 << LCD_EN);   // E low
     62a:	80 81       	ld	r24, Z
     62c:	8e 7f       	andi	r24, 0xFE	; 254
     62e:	80 83       	st	Z, r24
     630:	81 e0       	ldi	r24, 0x01	; 1
     632:	06 c0       	rjmp	.+12     	; 0x640 <process_pc_button_0+0x20e>
	#else
		//round up by default
		__ticks_dc = (uint32_t)(ceil(fabs(__tmp)));
	#endif

	__builtin_avr_delay_cycles(__ticks_dc);
     634:	e6 e6       	ldi	r30, 0x66	; 102
     636:	fe e0       	ldi	r31, 0x0E	; 14
     638:	31 97       	sbiw	r30, 0x01	; 1
     63a:	f1 f7       	brne	.-4      	; 0x638 <process_pc_button_0+0x206>
     63c:	00 00       	nop
}

static inline void LCD_Delay(uint8_t ms)
{
    while (ms--) _delay_ms(1);
     63e:	89 2f       	mov	r24, r25
     640:	9f ef       	ldi	r25, 0xFF	; 255
     642:	98 0f       	add	r25, r24
     644:	81 11       	cpse	r24, r1
     646:	f6 cf       	rjmp	.-20     	; 0x634 <process_pc_button_0+0x202>
static inline void LCD_Cursor_Shift(uint8_t p);
static inline void LCD_Cursor_Home(void);

static inline void LCD_Data(uint8_t ch)
{
    LCD_CTRL |= (1 << LCD_RS);    // RS=1 -> data
     648:	e5 e6       	ldi	r30, 0x65	; 101
     64a:	f0 e0       	ldi	r31, 0x00	; 0
     64c:	80 81       	ld	r24, Z
     64e:	84 60       	ori	r24, 0x04	; 4
     650:	80 83       	st	Z, r24
    LCD_CTRL &= ~(1 << LCD_RW);   // RW=0 -> write
     652:	80 81       	ld	r24, Z
     654:	8d 7f       	andi	r24, 0xFD	; 253
     656:	80 83       	st	Z, r24
    LCD_CTRL |= (1 << LCD_EN);    // E high
     658:	80 81       	ld	r24, Z
     65a:	81 60       	ori	r24, 0x01	; 1
     65c:	80 83       	st	Z, r24
	#else
		//round up by default
		__ticks_dc = (uint32_t)(ceil(fabs(__tmp)));
	#endif

	__builtin_avr_delay_cycles(__ticks_dc);
     65e:	46 ef       	ldi	r20, 0xF6	; 246
     660:	4a 95       	dec	r20
     662:	f1 f7       	brne	.-4      	; 0x660 <process_pc_button_0+0x22e>
    _delay_us(50);
    LCD_WDATA = ch;               // put data
     664:	81 e4       	ldi	r24, 0x41	; 65
     666:	8b bb       	out	0x1b, r24	; 27
     668:	56 ef       	ldi	r21, 0xF6	; 246
     66a:	5a 95       	dec	r21
     66c:	f1 f7       	brne	.-4      	; 0x66a <process_pc_button_0+0x238>
    _delay_us(50);
    LCD_CTRL &= ~(1 << LCD_EN);   // E low
     66e:	80 81       	ld	r24, Z
     670:	8e 7f       	andi	r24, 0xFE	; 254
     672:	80 83       	st	Z, r24
				LCD_Pos(1, local_lcd_column_pose);
				LCD_Char('A');
				local_lcd_column_pose += 1;
     674:	80 91 da 01 	lds	r24, 0x01DA	; 0x8001da <local_lcd_column_pose.2343>
     678:	8f 5f       	subi	r24, 0xFF	; 255
     67a:	80 93 da 01 	sts	0x01DA, r24	; 0x8001da <local_lcd_column_pose.2343>
     67e:	08 95       	ret
}

static inline void LCD_Pos(uint8_t x, uint8_t y)
{
    // x: row (0..1), y: column (0..15)
    LCD_Comm(0x80 | (x*0x40 + y));
     680:	80 5c       	subi	r24, 0xC0	; 192
     682:	80 68       	ori	r24, 0x80	; 128
    LCD_CTRL &= ~(1 << LCD_EN);   // E low
}

static inline void LCD_Comm(uint8_t command)
{
    LCD_CTRL &= ~(1 << LCD_RS);   // RS=0 -> command
     684:	e5 e6       	ldi	r30, 0x65	; 101
     686:	f0 e0       	ldi	r31, 0x00	; 0
     688:	90 81       	ld	r25, Z
     68a:	9b 7f       	andi	r25, 0xFB	; 251
     68c:	90 83       	st	Z, r25
    LCD_CTRL &= ~(1 << LCD_RW);   // RW=0 -> write
     68e:	90 81       	ld	r25, Z
     690:	9d 7f       	andi	r25, 0xFD	; 253
     692:	90 83       	st	Z, r25
    LCD_CTRL |= (1 << LCD_EN);    // E high
     694:	90 81       	ld	r25, Z
     696:	91 60       	ori	r25, 0x01	; 1
     698:	90 83       	st	Z, r25
     69a:	96 ef       	ldi	r25, 0xF6	; 246
     69c:	9a 95       	dec	r25
     69e:	f1 f7       	brne	.-4      	; 0x69c <process_pc_button_0+0x26a>
    _delay_us(50);
    LCD_WINST = command;          // put command
     6a0:	8b bb       	out	0x1b, r24	; 27
     6a2:	46 ef       	ldi	r20, 0xF6	; 246
     6a4:	4a 95       	dec	r20
     6a6:	f1 f7       	brne	.-4      	; 0x6a4 <process_pc_button_0+0x272>
    _delay_us(50);
    LCD_CTRL &= ~(1 << LCD_EN);   // E low
     6a8:	80 81       	ld	r24, Z
     6aa:	8e 7f       	andi	r24, 0xFE	; 254
     6ac:	80 83       	st	Z, r24
     6ae:	81 e0       	ldi	r24, 0x01	; 1
     6b0:	06 c0       	rjmp	.+12     	; 0x6be <process_pc_button_0+0x28c>
	#else
		//round up by default
		__ticks_dc = (uint32_t)(ceil(fabs(__tmp)));
	#endif

	__builtin_avr_delay_cycles(__ticks_dc);
     6b2:	e6 e6       	ldi	r30, 0x66	; 102
     6b4:	fe e0       	ldi	r31, 0x0E	; 14
     6b6:	31 97       	sbiw	r30, 0x01	; 1
     6b8:	f1 f7       	brne	.-4      	; 0x6b6 <process_pc_button_0+0x284>
     6ba:	00 00       	nop
}

static inline void LCD_Delay(uint8_t ms)
{
    while (ms--) _delay_ms(1);
     6bc:	89 2f       	mov	r24, r25
     6be:	9f ef       	ldi	r25, 0xFF	; 255
     6c0:	98 0f       	add	r25, r24
     6c2:	81 11       	cpse	r24, r1
     6c4:	f6 cf       	rjmp	.-20     	; 0x6b2 <process_pc_button_0+0x280>
static inline void LCD_Cursor_Shift(uint8_t p);
static inline void LCD_Cursor_Home(void);

static inline void LCD_Data(uint8_t ch)
{
    LCD_CTRL |= (1 << LCD_RS);    // RS=1 -> data
     6c6:	e5 e6       	ldi	r30, 0x65	; 101
     6c8:	f0 e0       	ldi	r31, 0x00	; 0
     6ca:	80 81       	ld	r24, Z
     6cc:	84 60       	ori	r24, 0x04	; 4
     6ce:	80 83       	st	Z, r24
    LCD_CTRL &= ~(1 << LCD_RW);   // RW=0 -> write
     6d0:	80 81       	ld	r24, Z
     6d2:	8d 7f       	andi	r24, 0xFD	; 253
     6d4:	80 83       	st	Z, r24
    LCD_CTRL |= (1 << LCD_EN);    // E high
     6d6:	80 81       	ld	r24, Z
     6d8:	81 60       	ori	r24, 0x01	; 1
     6da:	80 83       	st	Z, r24
	#else
		//round up by default
		__ticks_dc = (uint32_t)(ceil(fabs(__tmp)));
	#endif

	__builtin_avr_delay_cycles(__ticks_dc);
     6dc:	46 ef       	ldi	r20, 0xF6	; 246
     6de:	4a 95       	dec	r20
     6e0:	f1 f7       	brne	.-4      	; 0x6de <process_pc_button_0+0x2ac>
    _delay_us(50);
    LCD_WDATA = ch;               // put data
     6e2:	81 e4       	ldi	r24, 0x41	; 65
     6e4:	8b bb       	out	0x1b, r24	; 27
     6e6:	56 ef       	ldi	r21, 0xF6	; 246
     6e8:	5a 95       	dec	r21
     6ea:	f1 f7       	brne	.-4      	; 0x6e8 <process_pc_button_0+0x2b6>
    _delay_us(50);
    LCD_CTRL &= ~(1 << LCD_EN);   // E low
     6ec:	80 81       	ld	r24, Z
     6ee:	8e 7f       	andi	r24, 0xFE	; 254
     6f0:	80 83       	st	Z, r24
			}
			else
			{
				LCD_Pos(1, local_lcd_column_pose); // display current alphabet at row 1
				LCD_Char('A');
				local_lcd_column_pose += 1;
     6f2:	80 91 da 01 	lds	r24, 0x01DA	; 0x8001da <local_lcd_column_pose.2343>
     6f6:	8f 5f       	subi	r24, 0xFF	; 255
     6f8:	80 93 da 01 	sts	0x01DA, r24	; 0x8001da <local_lcd_column_pose.2343>
			}
		}
		else // twi error
		{
			// Error occurred during transmission
			LCD_Clear_one_row(1);
     6fc:	08 95       	ret
     6fe:	81 e0       	ldi	r24, 0x01	; 1
			LCD_Clear_one_row(0);
     700:	3b de       	rcall	.-906    	; 0x378 <LCD_Clear_one_row>
     702:	80 e0       	ldi	r24, 0x00	; 0
     704:	39 de       	rcall	.-910    	; 0x378 <LCD_Clear_one_row>
     706:	a2 e4       	ldi	r26, 0x42	; 66
     708:	b1 e0       	ldi	r27, 0x01	; 1
     70a:	22 c0       	rjmp	.+68     	; 0x750 <process_pc_button_0+0x31e>
}

static inline void LCD_Str(const char *str)
{
    while (*str != 0) {
        LCD_Char((uint8_t)*str++);
     70c:	11 96       	adiw	r26, 0x01	; 1
     70e:	81 e0       	ldi	r24, 0x01	; 1
     710:	06 c0       	rjmp	.+12     	; 0x71e <process_pc_button_0+0x2ec>
	#else
		//round up by default
		__ticks_dc = (uint32_t)(ceil(fabs(__tmp)));
	#endif

	__builtin_avr_delay_cycles(__ticks_dc);
     712:	e6 e6       	ldi	r30, 0x66	; 102
     714:	fe e0       	ldi	r31, 0x0E	; 14
     716:	31 97       	sbiw	r30, 0x01	; 1
     718:	f1 f7       	brne	.-4      	; 0x716 <process_pc_button_0+0x2e4>
     71a:	00 00       	nop
    LCD_CTRL &= ~(1 << LCD_EN);   // E low
}

static inline void LCD_Delay(uint8_t ms)
{
    while (ms--) _delay_ms(1);
     71c:	82 2f       	mov	r24, r18
     71e:	2f ef       	ldi	r18, 0xFF	; 255
     720:	28 0f       	add	r18, r24
     722:	81 11       	cpse	r24, r1
     724:	f6 cf       	rjmp	.-20     	; 0x712 <process_pc_button_0+0x2e0>
static inline void LCD_Cursor_Shift(uint8_t p);
static inline void LCD_Cursor_Home(void);

static inline void LCD_Data(uint8_t ch)
{
    LCD_CTRL |= (1 << LCD_RS);    // RS=1 -> data
     726:	e5 e6       	ldi	r30, 0x65	; 101
     728:	f0 e0       	ldi	r31, 0x00	; 0
     72a:	80 81       	ld	r24, Z
     72c:	84 60       	ori	r24, 0x04	; 4
     72e:	80 83       	st	Z, r24
    LCD_CTRL &= ~(1 << LCD_RW);   // RW=0 -> write
     730:	80 81       	ld	r24, Z
     732:	8d 7f       	andi	r24, 0xFD	; 253
     734:	80 83       	st	Z, r24
    LCD_CTRL |= (1 << LCD_EN);    // E high
     736:	80 81       	ld	r24, Z
     738:	81 60       	ori	r24, 0x01	; 1
     73a:	80 83       	st	Z, r24
	#else
		//round up by default
		__ticks_dc = (uint32_t)(ceil(fabs(__tmp)));
	#endif

	__builtin_avr_delay_cycles(__ticks_dc);
     73c:	46 ef       	ldi	r20, 0xF6	; 246
     73e:	4a 95       	dec	r20
     740:	f1 f7       	brne	.-4      	; 0x73e <process_pc_button_0+0x30c>
    _delay_us(50);
    LCD_WDATA = ch;               // put data
     742:	9b bb       	out	0x1b, r25	; 27
     744:	56 ef       	ldi	r21, 0xF6	; 246
     746:	5a 95       	dec	r21
     748:	f1 f7       	brne	.-4      	; 0x746 <process_pc_button_0+0x314>
    _delay_us(50);
    LCD_CTRL &= ~(1 << LCD_EN);   // E low
     74a:	80 81       	ld	r24, Z
     74c:	8e 7f       	andi	r24, 0xFE	; 254
     74e:	80 83       	st	Z, r24
    LCD_Data(ch);
}

static inline void LCD_Str(const char *str)
{
    while (*str != 0) {
     750:	9c 91       	ld	r25, X
     752:	91 11       	cpse	r25, r1
     754:	db cf       	rjmp	.-74     	; 0x70c <process_pc_button_0+0x2da>
     756:	08 95       	ret

00000758 <process_pc_button_1>:
	static uint8_t send_count = 0;
	static uint16_t last_execution_time = 0;
	static uint8_t local_lcd_column_pose = 0;
	static uint8_t character_shifter = 0;
	
	if((param_program_status != param_previous_program_status) )
     758:	86 17       	cp	r24, r22
     75a:	c1 f0       	breq	.+48     	; 0x78c <process_pc_button_1+0x34>
	{
		// reset static variables when not in STATUS_SEND_A
		send_count = 0;
     75c:	10 92 d7 01 	sts	0x01D7, r1	; 0x8001d7 <send_count.2349>
		// last_execution_time = 0;
		local_lcd_column_pose = 0;
     760:	10 92 d6 01 	sts	0x01D6, r1	; 0x8001d6 <local_lcd_column_pose.2351>
		character_shifter = 0;
     764:	10 92 d5 01 	sts	0x01D5, r1	; 0x8001d5 <character_shifter.2352>

		LCD_Clear_one_row(0);
     768:	80 e0       	ldi	r24, 0x00	; 0
     76a:	06 de       	rcall	.-1012   	; 0x378 <LCD_Clear_one_row>
		LCD_Clear_one_row(1);
     76c:	81 e0       	ldi	r24, 0x01	; 1
     76e:	04 de       	rcall	.-1016   	; 0x378 <LCD_Clear_one_row>
     770:	ec e5       	ldi	r30, 0x5C	; 92
     772:	f1 e0       	ldi	r31, 0x01	; 1
     774:	07 c0       	rjmp	.+14     	; 0x784 <process_pc_button_1+0x2c>
        putch_USART1(*str++);
     776:	31 96       	adiw	r30, 0x01	; 1
    UCSR1C = _BV(UCSZ11) | _BV(UCSZ10); // 8N1
}

static inline void putch_USART1(char data)
{
    while (!(UCSR1A & _BV(UDRE1))) {;}
     778:	80 91 9b 00 	lds	r24, 0x009B	; 0x80009b <__TEXT_REGION_LENGTH__+0x7e009b>
     77c:	85 ff       	sbrs	r24, 5
     77e:	fc cf       	rjmp	.-8      	; 0x778 <process_pc_button_1+0x20>
    UDR1 = data;
     780:	90 93 9c 00 	sts	0x009C, r25	; 0x80009c <__TEXT_REGION_LENGTH__+0x7e009c>
}

static inline void puts_USART1(char *str)
{
    while (*str != 0) {
     784:	90 81       	ld	r25, Z
     786:	91 11       	cpse	r25, r1
     788:	f6 cf       	rjmp	.-20     	; 0x776 <process_pc_button_1+0x1e>
     78a:	08 95       	ret
		param_previous_program_status = param_program_status;
	}
	else // continue
	
	// if(global_timer_sec - last_execution_time >= SENDING_PERIOD_SEC) // every SENDING_PERIOD_SEC seconds
	if(global_timer_100ms - last_execution_time >= SENDING_PERIOD_100MS * 5) // every SENDING_PERIOD_100MS seconds
     78c:	80 91 de 01 	lds	r24, 0x01DE	; 0x8001de <global_timer_100ms>
     790:	90 91 df 01 	lds	r25, 0x01DF	; 0x8001df <global_timer_100ms+0x1>
     794:	20 91 d3 01 	lds	r18, 0x01D3	; 0x8001d3 <last_execution_time.2350>
     798:	30 91 d4 01 	lds	r19, 0x01D4	; 0x8001d4 <last_execution_time.2350+0x1>
     79c:	82 1b       	sub	r24, r18
     79e:	93 0b       	sbc	r25, r19
     7a0:	05 97       	sbiw	r24, 0x05	; 5
     7a2:	08 f4       	brcc	.+2      	; 0x7a6 <process_pc_button_1+0x4e>
     7a4:	83 c1       	rjmp	.+774    	; 0xaac <process_pc_button_1+0x354>
	{
		// last_execution_time = global_timer_sec;
		last_execution_time = global_timer_100ms;
     7a6:	80 91 de 01 	lds	r24, 0x01DE	; 0x8001de <global_timer_100ms>
     7aa:	90 91 df 01 	lds	r25, 0x01DF	; 0x8001df <global_timer_100ms+0x1>
     7ae:	90 93 d4 01 	sts	0x01D4, r25	; 0x8001d4 <last_execution_time.2350+0x1>
     7b2:	80 93 d3 01 	sts	0x01D3, r24	; 0x8001d3 <last_execution_time.2350>
		if(character_shifter >= 26) character_shifter = 0; // wrap around after 'Z'
     7b6:	80 91 d5 01 	lds	r24, 0x01D5	; 0x8001d5 <character_shifter.2352>
     7ba:	8a 31       	cpi	r24, 0x1A	; 26
     7bc:	10 f0       	brcs	.+4      	; 0x7c2 <process_pc_button_1+0x6a>
     7be:	10 92 d5 01 	sts	0x01D5, r1	; 0x8001d5 <character_shifter.2352>
		twi_result = TWI_Master_Transmit('A'+(character_shifter), SLAVE_ADDR);
     7c2:	80 91 d5 01 	lds	r24, 0x01D5	; 0x8001d5 <character_shifter.2352>
     7c6:	51 e4       	ldi	r21, 0x41	; 65
     7c8:	58 0f       	add	r21, r24
}

// START
static inline uint8_t TWI_Start(void)
{
    TWCR = (1<<TWINT) | (1<<TWSTA) | (1<<TWEN);	// START Ω≈»£ ∫∏≥ª±‚
     7ca:	84 ea       	ldi	r24, 0xA4	; 164
     7cc:	80 93 74 00 	sts	0x0074, r24	; 0x800074 <__TEXT_REGION_LENGTH__+0x7e0074>
// Ω≈»£ ¿¸º€ øœ∑· ∞ÀªÁ π◊ Status »Æ¿Œ + Timeout Check 
// Error code: 0=no error, 1=timeout, 2=status mismatch

static inline uint8_t TWI_TransCheck_ACK(uint8_t Stat)
{
    uint16_t cnt = 0;
     7d0:	80 e0       	ldi	r24, 0x00	; 0
     7d2:	90 e0       	ldi	r25, 0x00	; 0
     7d4:	07 c0       	rjmp	.+14     	; 0x7e4 <process_pc_button_1+0x8c>
    while (!(TWCR & (1<<TWINT)))				// ∆–≈∂ ¿¸º€ øœ∑·µ… ∂ß ±Ó¡ˆ wait
	{				
        if (cnt++ > ExtDev_ERR_MAX_CNT) return 1; // timeout
     7d6:	9c 01       	movw	r18, r24
     7d8:	2f 5f       	subi	r18, 0xFF	; 255
     7da:	3f 4f       	sbci	r19, 0xFF	; 255
     7dc:	81 3d       	cpi	r24, 0xD1	; 209
     7de:	97 40       	sbci	r25, 0x07	; 7
     7e0:	60 f4       	brcc	.+24     	; 0x7fa <process_pc_button_1+0xa2>
     7e2:	c9 01       	movw	r24, r18
// Error code: 0=no error, 1=timeout, 2=status mismatch

static inline uint8_t TWI_TransCheck_ACK(uint8_t Stat)
{
    uint16_t cnt = 0;
    while (!(TWCR & (1<<TWINT)))				// ∆–≈∂ ¿¸º€ øœ∑·µ… ∂ß ±Ó¡ˆ wait
     7e4:	20 91 74 00 	lds	r18, 0x0074	; 0x800074 <__TEXT_REGION_LENGTH__+0x7e0074>
     7e8:	22 23       	and	r18, r18
     7ea:	ac f7       	brge	.-22     	; 0x7d6 <process_pc_button_1+0x7e>
	{				
        if (cnt++ > ExtDev_ERR_MAX_CNT) return 1; // timeout
    }
    if ((TWSR & 0xF8) != Stat) return 2;         // status mismatch, ¿¸º€ ∞ÀªÁ error(2 π›»Ø)
     7ec:	80 91 71 00 	lds	r24, 0x0071	; 0x800071 <__TEXT_REGION_LENGTH__+0x7e0071>
     7f0:	88 7f       	andi	r24, 0xF8	; 248
     7f2:	88 30       	cpi	r24, 0x08	; 8
     7f4:	21 f0       	breq	.+8      	; 0x7fe <process_pc_button_1+0xa6>
     7f6:	42 e0       	ldi	r20, 0x02	; 2
     7f8:	03 c0       	rjmp	.+6      	; 0x800 <process_pc_button_1+0xa8>
static inline uint8_t TWI_TransCheck_ACK(uint8_t Stat)
{
    uint16_t cnt = 0;
    while (!(TWCR & (1<<TWINT)))				// ∆–≈∂ ¿¸º€ øœ∑·µ… ∂ß ±Ó¡ˆ wait
	{				
        if (cnt++ > ExtDev_ERR_MAX_CNT) return 1; // timeout
     7fa:	41 e0       	ldi	r20, 0x01	; 1
     7fc:	01 c0       	rjmp	.+2      	; 0x800 <process_pc_button_1+0xa8>
    }
    if ((TWSR & 0xF8) != Stat) return 2;         // status mismatch, ¿¸º€ ∞ÀªÁ error(2 π›»Ø)
    return 0;
     7fe:	40 e0       	ldi	r20, 0x00	; 0

// Master transmit one byte
static inline uint8_t TWI_Master_Transmit(uint8_t Data, uint8_t Addr)
{
    uint8_t ret = TWI_Start();
    if (ret) return ret;
     800:	41 11       	cpse	r20, r1
     802:	3e c0       	rjmp	.+124    	; 0x880 <process_pc_button_1+0x128>
}

// SLA+W
static inline uint8_t TWI_Write_SLAW(uint8_t Addr)
{
    TWDR = Addr;							// 8-bit slave address (W bit assumed in Addr)
     804:	88 e0       	ldi	r24, 0x08	; 8
     806:	80 93 73 00 	sts	0x0073, r24	; 0x800073 <__TEXT_REGION_LENGTH__+0x7e0073>
    TWCR = (1<<TWINT) | (1<<TWEN);			// SLA + W ∆–≈∂ ∫∏≥ª±‚  
     80a:	84 e8       	ldi	r24, 0x84	; 132
     80c:	80 93 74 00 	sts	0x0074, r24	; 0x800074 <__TEXT_REGION_LENGTH__+0x7e0074>
// Ω≈»£ ¿¸º€ øœ∑· ∞ÀªÁ π◊ Status »Æ¿Œ + Timeout Check 
// Error code: 0=no error, 1=timeout, 2=status mismatch

static inline uint8_t TWI_TransCheck_ACK(uint8_t Stat)
{
    uint16_t cnt = 0;
     810:	80 e0       	ldi	r24, 0x00	; 0
     812:	90 e0       	ldi	r25, 0x00	; 0
     814:	07 c0       	rjmp	.+14     	; 0x824 <process_pc_button_1+0xcc>
    while (!(TWCR & (1<<TWINT)))				// ∆–≈∂ ¿¸º€ øœ∑·µ… ∂ß ±Ó¡ˆ wait
	{				
        if (cnt++ > ExtDev_ERR_MAX_CNT) return 1; // timeout
     816:	9c 01       	movw	r18, r24
     818:	2f 5f       	subi	r18, 0xFF	; 255
     81a:	3f 4f       	sbci	r19, 0xFF	; 255
     81c:	81 3d       	cpi	r24, 0xD1	; 209
     81e:	97 40       	sbci	r25, 0x07	; 7
     820:	60 f4       	brcc	.+24     	; 0x83a <process_pc_button_1+0xe2>
     822:	c9 01       	movw	r24, r18
// Error code: 0=no error, 1=timeout, 2=status mismatch

static inline uint8_t TWI_TransCheck_ACK(uint8_t Stat)
{
    uint16_t cnt = 0;
    while (!(TWCR & (1<<TWINT)))				// ∆–≈∂ ¿¸º€ øœ∑·µ… ∂ß ±Ó¡ˆ wait
     824:	20 91 74 00 	lds	r18, 0x0074	; 0x800074 <__TEXT_REGION_LENGTH__+0x7e0074>
     828:	22 23       	and	r18, r18
     82a:	ac f7       	brge	.-22     	; 0x816 <process_pc_button_1+0xbe>
	{				
        if (cnt++ > ExtDev_ERR_MAX_CNT) return 1; // timeout
    }
    if ((TWSR & 0xF8) != Stat) return 2;         // status mismatch, ¿¸º€ ∞ÀªÁ error(2 π›»Ø)
     82c:	80 91 71 00 	lds	r24, 0x0071	; 0x800071 <__TEXT_REGION_LENGTH__+0x7e0071>
     830:	88 7f       	andi	r24, 0xF8	; 248
     832:	88 31       	cpi	r24, 0x18	; 24
     834:	19 f0       	breq	.+6      	; 0x83c <process_pc_button_1+0xe4>
     836:	42 e0       	ldi	r20, 0x02	; 2
     838:	01 c0       	rjmp	.+2      	; 0x83c <process_pc_button_1+0xe4>
static inline uint8_t TWI_TransCheck_ACK(uint8_t Stat)
{
    uint16_t cnt = 0;
    while (!(TWCR & (1<<TWINT)))				// ∆–≈∂ ¿¸º€ øœ∑·µ… ∂ß ±Ó¡ˆ wait
	{				
        if (cnt++ > ExtDev_ERR_MAX_CNT) return 1; // timeout
     83a:	41 e0       	ldi	r20, 0x01	; 1
static inline uint8_t TWI_Master_Transmit(uint8_t Data, uint8_t Addr)
{
    uint8_t ret = TWI_Start();
    if (ret) return ret;
    ret = TWI_Write_SLAW(Addr);
    if (ret) return ret;
     83c:	41 11       	cpse	r20, r1
     83e:	20 c0       	rjmp	.+64     	; 0x880 <process_pc_button_1+0x128>
}

// DATA (write), µ•¿Ã≈Õ ∆–≈∂ ¿¸º€
static inline uint8_t TWI_Write_Data(uint8_t Data)
{
    TWDR = Data;
     840:	50 93 73 00 	sts	0x0073, r21	; 0x800073 <__TEXT_REGION_LENGTH__+0x7e0073>
    TWCR = (1<<TWINT) | (1<<TWEN);		   // µ•¿Ã≈Õ ∆–≈∂ º€Ω≈
     844:	84 e8       	ldi	r24, 0x84	; 132
     846:	80 93 74 00 	sts	0x0074, r24	; 0x800074 <__TEXT_REGION_LENGTH__+0x7e0074>
// Ω≈»£ ¿¸º€ øœ∑· ∞ÀªÁ π◊ Status »Æ¿Œ + Timeout Check 
// Error code: 0=no error, 1=timeout, 2=status mismatch

static inline uint8_t TWI_TransCheck_ACK(uint8_t Stat)
{
    uint16_t cnt = 0;
     84a:	80 e0       	ldi	r24, 0x00	; 0
     84c:	90 e0       	ldi	r25, 0x00	; 0
     84e:	07 c0       	rjmp	.+14     	; 0x85e <process_pc_button_1+0x106>
    while (!(TWCR & (1<<TWINT)))				// ∆–≈∂ ¿¸º€ øœ∑·µ… ∂ß ±Ó¡ˆ wait
	{				
        if (cnt++ > ExtDev_ERR_MAX_CNT) return 1; // timeout
     850:	9c 01       	movw	r18, r24
     852:	2f 5f       	subi	r18, 0xFF	; 255
     854:	3f 4f       	sbci	r19, 0xFF	; 255
     856:	81 3d       	cpi	r24, 0xD1	; 209
     858:	97 40       	sbci	r25, 0x07	; 7
     85a:	60 f4       	brcc	.+24     	; 0x874 <process_pc_button_1+0x11c>
     85c:	c9 01       	movw	r24, r18
// Error code: 0=no error, 1=timeout, 2=status mismatch

static inline uint8_t TWI_TransCheck_ACK(uint8_t Stat)
{
    uint16_t cnt = 0;
    while (!(TWCR & (1<<TWINT)))				// ∆–≈∂ ¿¸º€ øœ∑·µ… ∂ß ±Ó¡ˆ wait
     85e:	20 91 74 00 	lds	r18, 0x0074	; 0x800074 <__TEXT_REGION_LENGTH__+0x7e0074>
     862:	22 23       	and	r18, r18
     864:	ac f7       	brge	.-22     	; 0x850 <process_pc_button_1+0xf8>
	{				
        if (cnt++ > ExtDev_ERR_MAX_CNT) return 1; // timeout
    }
    if ((TWSR & 0xF8) != Stat) return 2;         // status mismatch, ¿¸º€ ∞ÀªÁ error(2 π›»Ø)
     866:	80 91 71 00 	lds	r24, 0x0071	; 0x800071 <__TEXT_REGION_LENGTH__+0x7e0071>
     86a:	88 7f       	andi	r24, 0xF8	; 248
     86c:	88 32       	cpi	r24, 0x28	; 40
     86e:	19 f0       	breq	.+6      	; 0x876 <process_pc_button_1+0x11e>
     870:	42 e0       	ldi	r20, 0x02	; 2
     872:	01 c0       	rjmp	.+2      	; 0x876 <process_pc_button_1+0x11e>
static inline uint8_t TWI_TransCheck_ACK(uint8_t Stat)
{
    uint16_t cnt = 0;
    while (!(TWCR & (1<<TWINT)))				// ∆–≈∂ ¿¸º€ øœ∑·µ… ∂ß ±Ó¡ˆ wait
	{				
        if (cnt++ > ExtDev_ERR_MAX_CNT) return 1; // timeout
     874:	41 e0       	ldi	r20, 0x01	; 1
    uint8_t ret = TWI_Start();
    if (ret) return ret;
    ret = TWI_Write_SLAW(Addr);
    if (ret) return ret;
    ret = TWI_Write_Data(Data);
    if (ret) return ret;
     876:	41 11       	cpse	r20, r1
     878:	03 c0       	rjmp	.+6      	; 0x880 <process_pc_button_1+0x128>
}

// STOP
static inline void TWI_Stop(void)
{
    TWCR = (1<<TWINT) | (1<<TWSTO) | (1<<TWEN);
     87a:	84 e9       	ldi	r24, 0x94	; 148
     87c:	80 93 74 00 	sts	0x0074, r24	; 0x800074 <__TEXT_REGION_LENGTH__+0x7e0074>
		// sprintf((char*)global_usart_send_msg_buffer, "%3d sec\r\n", global_timer_sec);
		// puts_USART1((char*)global_usart_send_msg_buffer); // send current seconds to USART1
		if(twi_result == 0)
     880:	41 11       	cpse	r20, r1
     882:	e8 c0       	rjmp	.+464    	; 0xa54 <process_pc_button_1+0x2fc>
    LCD_CTRL &= ~(1 << LCD_EN);   // E low
}

static inline void LCD_Comm(uint8_t command)
{
    LCD_CTRL &= ~(1 << LCD_RS);   // RS=0 -> command
     884:	e5 e6       	ldi	r30, 0x65	; 101
     886:	f0 e0       	ldi	r31, 0x00	; 0
     888:	80 81       	ld	r24, Z
     88a:	8b 7f       	andi	r24, 0xFB	; 251
     88c:	80 83       	st	Z, r24
    LCD_CTRL &= ~(1 << LCD_RW);   // RW=0 -> write
     88e:	80 81       	ld	r24, Z
     890:	8d 7f       	andi	r24, 0xFD	; 253
     892:	80 83       	st	Z, r24
    LCD_CTRL |= (1 << LCD_EN);    // E high
     894:	80 81       	ld	r24, Z
     896:	81 60       	ori	r24, 0x01	; 1
     898:	80 83       	st	Z, r24
     89a:	46 ef       	ldi	r20, 0xF6	; 246
     89c:	4a 95       	dec	r20
     89e:	f1 f7       	brne	.-4      	; 0x89c <process_pc_button_1+0x144>
    _delay_us(50);
    LCD_WINST = command;          // put command
     8a0:	80 e8       	ldi	r24, 0x80	; 128
     8a2:	8b bb       	out	0x1b, r24	; 27
     8a4:	56 ef       	ldi	r21, 0xF6	; 246
     8a6:	5a 95       	dec	r21
     8a8:	f1 f7       	brne	.-4      	; 0x8a6 <process_pc_button_1+0x14e>
    _delay_us(50);
    LCD_CTRL &= ~(1 << LCD_EN);   // E low
     8aa:	80 81       	ld	r24, Z
     8ac:	8e 7f       	andi	r24, 0xFE	; 254
     8ae:	80 83       	st	Z, r24
		{
			LCD_Pos(0, 0);
			sprintf((char*)global_lcd_row_1, "TX count: %d", ++send_count);
     8b0:	80 91 d7 01 	lds	r24, 0x01D7	; 0x8001d7 <send_count.2349>
     8b4:	8f 5f       	subi	r24, 0xFF	; 255
     8b6:	80 93 d7 01 	sts	0x01D7, r24	; 0x8001d7 <send_count.2349>
     8ba:	1f 92       	push	r1
     8bc:	8f 93       	push	r24
     8be:	8f e4       	ldi	r24, 0x4F	; 79
     8c0:	91 e0       	ldi	r25, 0x01	; 1
     8c2:	9f 93       	push	r25
     8c4:	8f 93       	push	r24
     8c6:	81 ee       	ldi	r24, 0xE1	; 225
     8c8:	92 e0       	ldi	r25, 0x02	; 2
     8ca:	9f 93       	push	r25
     8cc:	8f 93       	push	r24
     8ce:	03 d7       	rcall	.+3590   	; 0x16d6 <sprintf>
     8d0:	0f 90       	pop	r0
     8d2:	0f 90       	pop	r0
     8d4:	0f 90       	pop	r0
     8d6:	0f 90       	pop	r0
     8d8:	0f 90       	pop	r0
     8da:	0f 90       	pop	r0
     8dc:	a1 ee       	ldi	r26, 0xE1	; 225
     8de:	b2 e0       	ldi	r27, 0x02	; 2
     8e0:	22 c0       	rjmp	.+68     	; 0x926 <process_pc_button_1+0x1ce>
}

static inline void LCD_Str(const char *str)
{
    while (*str != 0) {
        LCD_Char((uint8_t)*str++);
     8e2:	11 96       	adiw	r26, 0x01	; 1
     8e4:	81 e0       	ldi	r24, 0x01	; 1
     8e6:	06 c0       	rjmp	.+12     	; 0x8f4 <process_pc_button_1+0x19c>
	#else
		//round up by default
		__ticks_dc = (uint32_t)(ceil(fabs(__tmp)));
	#endif

	__builtin_avr_delay_cycles(__ticks_dc);
     8e8:	e6 e6       	ldi	r30, 0x66	; 102
     8ea:	fe e0       	ldi	r31, 0x0E	; 14
     8ec:	31 97       	sbiw	r30, 0x01	; 1
     8ee:	f1 f7       	brne	.-4      	; 0x8ec <process_pc_button_1+0x194>
     8f0:	00 00       	nop
    LCD_CTRL &= ~(1 << LCD_EN);   // E low
}

static inline void LCD_Delay(uint8_t ms)
{
    while (ms--) _delay_ms(1);
     8f2:	82 2f       	mov	r24, r18
     8f4:	2f ef       	ldi	r18, 0xFF	; 255
     8f6:	28 0f       	add	r18, r24
     8f8:	81 11       	cpse	r24, r1
     8fa:	f6 cf       	rjmp	.-20     	; 0x8e8 <process_pc_button_1+0x190>
static inline void LCD_Cursor_Shift(uint8_t p);
static inline void LCD_Cursor_Home(void);

static inline void LCD_Data(uint8_t ch)
{
    LCD_CTRL |= (1 << LCD_RS);    // RS=1 -> data
     8fc:	e5 e6       	ldi	r30, 0x65	; 101
     8fe:	f0 e0       	ldi	r31, 0x00	; 0
     900:	80 81       	ld	r24, Z
     902:	84 60       	ori	r24, 0x04	; 4
     904:	80 83       	st	Z, r24
    LCD_CTRL &= ~(1 << LCD_RW);   // RW=0 -> write
     906:	80 81       	ld	r24, Z
     908:	8d 7f       	andi	r24, 0xFD	; 253
     90a:	80 83       	st	Z, r24
    LCD_CTRL |= (1 << LCD_EN);    // E high
     90c:	80 81       	ld	r24, Z
     90e:	81 60       	ori	r24, 0x01	; 1
     910:	80 83       	st	Z, r24
	#else
		//round up by default
		__ticks_dc = (uint32_t)(ceil(fabs(__tmp)));
	#endif

	__builtin_avr_delay_cycles(__ticks_dc);
     912:	46 ef       	ldi	r20, 0xF6	; 246
     914:	4a 95       	dec	r20
     916:	f1 f7       	brne	.-4      	; 0x914 <process_pc_button_1+0x1bc>
    _delay_us(50);
    LCD_WDATA = ch;               // put data
     918:	9b bb       	out	0x1b, r25	; 27
     91a:	56 ef       	ldi	r21, 0xF6	; 246
     91c:	5a 95       	dec	r21
     91e:	f1 f7       	brne	.-4      	; 0x91c <process_pc_button_1+0x1c4>
    _delay_us(50);
    LCD_CTRL &= ~(1 << LCD_EN);   // E low
     920:	80 81       	ld	r24, Z
     922:	8e 7f       	andi	r24, 0xFE	; 254
     924:	80 83       	st	Z, r24
    LCD_Data(ch);
}

static inline void LCD_Str(const char *str)
{
    while (*str != 0) {
     926:	9c 91       	ld	r25, X
     928:	91 11       	cpse	r25, r1
     92a:	db cf       	rjmp	.-74     	; 0x8e2 <process_pc_button_1+0x18a>
			LCD_Str((char*)global_lcd_row_1);
			
			if(local_lcd_column_pose >= 16)
     92c:	80 91 d6 01 	lds	r24, 0x01D6	; 0x8001d6 <local_lcd_column_pose.2351>
     930:	80 31       	cpi	r24, 0x10	; 16
     932:	08 f4       	brcc	.+2      	; 0x936 <process_pc_button_1+0x1de>
			{
				LCD_Clear_one_row(1);
     934:	49 c0       	rjmp	.+146    	; 0x9c8 <process_pc_button_1+0x270>
     936:	81 e0       	ldi	r24, 0x01	; 1
     938:	1f dd       	rcall	.-1474   	; 0x378 <LCD_Clear_one_row>
				local_lcd_column_pose = 0;
     93a:	10 92 d6 01 	sts	0x01D6, r1	; 0x8001d6 <local_lcd_column_pose.2351>
    LCD_CTRL &= ~(1 << LCD_EN);   // E low
}

static inline void LCD_Comm(uint8_t command)
{
    LCD_CTRL &= ~(1 << LCD_RS);   // RS=0 -> command
     93e:	e5 e6       	ldi	r30, 0x65	; 101
     940:	f0 e0       	ldi	r31, 0x00	; 0
     942:	80 81       	ld	r24, Z
     944:	8b 7f       	andi	r24, 0xFB	; 251
     946:	80 83       	st	Z, r24
    LCD_CTRL &= ~(1 << LCD_RW);   // RW=0 -> write
     948:	80 81       	ld	r24, Z
     94a:	8d 7f       	andi	r24, 0xFD	; 253
     94c:	80 83       	st	Z, r24
    LCD_CTRL |= (1 << LCD_EN);    // E high
     94e:	80 81       	ld	r24, Z
     950:	81 60       	ori	r24, 0x01	; 1
     952:	80 83       	st	Z, r24
     954:	66 ef       	ldi	r22, 0xF6	; 246
     956:	6a 95       	dec	r22
     958:	f1 f7       	brne	.-4      	; 0x956 <process_pc_button_1+0x1fe>
    _delay_us(50);
    LCD_WINST = command;          // put command
     95a:	80 ec       	ldi	r24, 0xC0	; 192
     95c:	8b bb       	out	0x1b, r24	; 27
     95e:	86 ef       	ldi	r24, 0xF6	; 246
     960:	8a 95       	dec	r24
     962:	f1 f7       	brne	.-4      	; 0x960 <process_pc_button_1+0x208>
    _delay_us(50);
    LCD_CTRL &= ~(1 << LCD_EN);   // E low
     964:	80 81       	ld	r24, Z
     966:	8e 7f       	andi	r24, 0xFE	; 254
     968:	80 83       	st	Z, r24
				LCD_Pos(1, local_lcd_column_pose);
				LCD_Char('A'+(character_shifter));
     96a:	90 91 d5 01 	lds	r25, 0x01D5	; 0x8001d5 <character_shifter.2352>
     96e:	9f 5b       	subi	r25, 0xBF	; 191
     970:	81 e0       	ldi	r24, 0x01	; 1
     972:	06 c0       	rjmp	.+12     	; 0x980 <process_pc_button_1+0x228>
	#else
		//round up by default
		__ticks_dc = (uint32_t)(ceil(fabs(__tmp)));
	#endif

	__builtin_avr_delay_cycles(__ticks_dc);
     974:	e6 e6       	ldi	r30, 0x66	; 102
     976:	fe e0       	ldi	r31, 0x0E	; 14
     978:	31 97       	sbiw	r30, 0x01	; 1
     97a:	f1 f7       	brne	.-4      	; 0x978 <process_pc_button_1+0x220>
     97c:	00 00       	nop
}

static inline void LCD_Delay(uint8_t ms)
{
    while (ms--) _delay_ms(1);
     97e:	82 2f       	mov	r24, r18
     980:	2f ef       	ldi	r18, 0xFF	; 255
     982:	28 0f       	add	r18, r24
     984:	81 11       	cpse	r24, r1
     986:	f6 cf       	rjmp	.-20     	; 0x974 <process_pc_button_1+0x21c>
static inline void LCD_Cursor_Shift(uint8_t p);
static inline void LCD_Cursor_Home(void);

static inline void LCD_Data(uint8_t ch)
{
    LCD_CTRL |= (1 << LCD_RS);    // RS=1 -> data
     988:	e5 e6       	ldi	r30, 0x65	; 101
     98a:	f0 e0       	ldi	r31, 0x00	; 0
     98c:	80 81       	ld	r24, Z
     98e:	84 60       	ori	r24, 0x04	; 4
     990:	80 83       	st	Z, r24
    LCD_CTRL &= ~(1 << LCD_RW);   // RW=0 -> write
     992:	80 81       	ld	r24, Z
     994:	8d 7f       	andi	r24, 0xFD	; 253
     996:	80 83       	st	Z, r24
    LCD_CTRL |= (1 << LCD_EN);    // E high
     998:	80 81       	ld	r24, Z
     99a:	81 60       	ori	r24, 0x01	; 1
     99c:	80 83       	st	Z, r24
	#else
		//round up by default
		__ticks_dc = (uint32_t)(ceil(fabs(__tmp)));
	#endif

	__builtin_avr_delay_cycles(__ticks_dc);
     99e:	46 ef       	ldi	r20, 0xF6	; 246
     9a0:	4a 95       	dec	r20
     9a2:	f1 f7       	brne	.-4      	; 0x9a0 <process_pc_button_1+0x248>
    _delay_us(50);
    LCD_WDATA = ch;               // put data
     9a4:	9b bb       	out	0x1b, r25	; 27
     9a6:	56 ef       	ldi	r21, 0xF6	; 246
     9a8:	5a 95       	dec	r21
     9aa:	f1 f7       	brne	.-4      	; 0x9a8 <process_pc_button_1+0x250>
    _delay_us(50);
    LCD_CTRL &= ~(1 << LCD_EN);   // E low
     9ac:	80 81       	ld	r24, Z
     9ae:	8e 7f       	andi	r24, 0xFE	; 254
     9b0:	80 83       	st	Z, r24
				local_lcd_column_pose += 1;
     9b2:	80 91 d6 01 	lds	r24, 0x01D6	; 0x8001d6 <local_lcd_column_pose.2351>
     9b6:	8f 5f       	subi	r24, 0xFF	; 255
     9b8:	80 93 d6 01 	sts	0x01D6, r24	; 0x8001d6 <local_lcd_column_pose.2351>
				character_shifter += 1;
     9bc:	80 91 d5 01 	lds	r24, 0x01D5	; 0x8001d5 <character_shifter.2352>
     9c0:	8f 5f       	subi	r24, 0xFF	; 255
     9c2:	80 93 d5 01 	sts	0x01D5, r24	; 0x8001d5 <character_shifter.2352>
     9c6:	08 95       	ret
}

static inline void LCD_Pos(uint8_t x, uint8_t y)
{
    // x: row (0..1), y: column (0..15)
    LCD_Comm(0x80 | (x*0x40 + y));
     9c8:	80 5c       	subi	r24, 0xC0	; 192
     9ca:	80 68       	ori	r24, 0x80	; 128
    LCD_CTRL &= ~(1 << LCD_EN);   // E low
}

static inline void LCD_Comm(uint8_t command)
{
    LCD_CTRL &= ~(1 << LCD_RS);   // RS=0 -> command
     9cc:	e5 e6       	ldi	r30, 0x65	; 101
     9ce:	f0 e0       	ldi	r31, 0x00	; 0
     9d0:	90 81       	ld	r25, Z
     9d2:	9b 7f       	andi	r25, 0xFB	; 251
     9d4:	90 83       	st	Z, r25
    LCD_CTRL &= ~(1 << LCD_RW);   // RW=0 -> write
     9d6:	90 81       	ld	r25, Z
     9d8:	9d 7f       	andi	r25, 0xFD	; 253
     9da:	90 83       	st	Z, r25
    LCD_CTRL |= (1 << LCD_EN);    // E high
     9dc:	90 81       	ld	r25, Z
     9de:	91 60       	ori	r25, 0x01	; 1
     9e0:	90 83       	st	Z, r25
     9e2:	66 ef       	ldi	r22, 0xF6	; 246
     9e4:	6a 95       	dec	r22
     9e6:	f1 f7       	brne	.-4      	; 0x9e4 <process_pc_button_1+0x28c>
    _delay_us(50);
    LCD_WINST = command;          // put command
     9e8:	8b bb       	out	0x1b, r24	; 27
     9ea:	86 ef       	ldi	r24, 0xF6	; 246
     9ec:	8a 95       	dec	r24
     9ee:	f1 f7       	brne	.-4      	; 0x9ec <process_pc_button_1+0x294>
    _delay_us(50);
    LCD_CTRL &= ~(1 << LCD_EN);   // E low
     9f0:	80 81       	ld	r24, Z
     9f2:	8e 7f       	andi	r24, 0xFE	; 254
     9f4:	80 83       	st	Z, r24
			}
			else
			{
				LCD_Pos(1, local_lcd_column_pose); // display current alphabet at row 1
				LCD_Char('A'+(character_shifter));
     9f6:	90 91 d5 01 	lds	r25, 0x01D5	; 0x8001d5 <character_shifter.2352>
     9fa:	9f 5b       	subi	r25, 0xBF	; 191
     9fc:	81 e0       	ldi	r24, 0x01	; 1
     9fe:	06 c0       	rjmp	.+12     	; 0xa0c <process_pc_button_1+0x2b4>
	#else
		//round up by default
		__ticks_dc = (uint32_t)(ceil(fabs(__tmp)));
	#endif

	__builtin_avr_delay_cycles(__ticks_dc);
     a00:	e6 e6       	ldi	r30, 0x66	; 102
     a02:	fe e0       	ldi	r31, 0x0E	; 14
     a04:	31 97       	sbiw	r30, 0x01	; 1
     a06:	f1 f7       	brne	.-4      	; 0xa04 <process_pc_button_1+0x2ac>
     a08:	00 00       	nop
}

static inline void LCD_Delay(uint8_t ms)
{
    while (ms--) _delay_ms(1);
     a0a:	82 2f       	mov	r24, r18
     a0c:	2f ef       	ldi	r18, 0xFF	; 255
     a0e:	28 0f       	add	r18, r24
     a10:	81 11       	cpse	r24, r1
     a12:	f6 cf       	rjmp	.-20     	; 0xa00 <process_pc_button_1+0x2a8>
static inline void LCD_Cursor_Shift(uint8_t p);
static inline void LCD_Cursor_Home(void);

static inline void LCD_Data(uint8_t ch)
{
    LCD_CTRL |= (1 << LCD_RS);    // RS=1 -> data
     a14:	e5 e6       	ldi	r30, 0x65	; 101
     a16:	f0 e0       	ldi	r31, 0x00	; 0
     a18:	80 81       	ld	r24, Z
     a1a:	84 60       	ori	r24, 0x04	; 4
     a1c:	80 83       	st	Z, r24
    LCD_CTRL &= ~(1 << LCD_RW);   // RW=0 -> write
     a1e:	80 81       	ld	r24, Z
     a20:	8d 7f       	andi	r24, 0xFD	; 253
     a22:	80 83       	st	Z, r24
    LCD_CTRL |= (1 << LCD_EN);    // E high
     a24:	80 81       	ld	r24, Z
     a26:	81 60       	ori	r24, 0x01	; 1
     a28:	80 83       	st	Z, r24
	#else
		//round up by default
		__ticks_dc = (uint32_t)(ceil(fabs(__tmp)));
	#endif

	__builtin_avr_delay_cycles(__ticks_dc);
     a2a:	46 ef       	ldi	r20, 0xF6	; 246
     a2c:	4a 95       	dec	r20
     a2e:	f1 f7       	brne	.-4      	; 0xa2c <process_pc_button_1+0x2d4>
    _delay_us(50);
    LCD_WDATA = ch;               // put data
     a30:	9b bb       	out	0x1b, r25	; 27
     a32:	56 ef       	ldi	r21, 0xF6	; 246
     a34:	5a 95       	dec	r21
     a36:	f1 f7       	brne	.-4      	; 0xa34 <process_pc_button_1+0x2dc>
    _delay_us(50);
    LCD_CTRL &= ~(1 << LCD_EN);   // E low
     a38:	80 81       	ld	r24, Z
     a3a:	8e 7f       	andi	r24, 0xFE	; 254
     a3c:	80 83       	st	Z, r24
				local_lcd_column_pose += 1;
     a3e:	80 91 d6 01 	lds	r24, 0x01D6	; 0x8001d6 <local_lcd_column_pose.2351>
     a42:	8f 5f       	subi	r24, 0xFF	; 255
     a44:	80 93 d6 01 	sts	0x01D6, r24	; 0x8001d6 <local_lcd_column_pose.2351>
				character_shifter += 1;
     a48:	80 91 d5 01 	lds	r24, 0x01D5	; 0x8001d5 <character_shifter.2352>
     a4c:	8f 5f       	subi	r24, 0xFF	; 255
     a4e:	80 93 d5 01 	sts	0x01D5, r24	; 0x8001d5 <character_shifter.2352>
			}
		}
		else // twi error
		{
			// Error occurred during transmission
			LCD_Clear_one_row(1);
     a52:	08 95       	ret
     a54:	81 e0       	ldi	r24, 0x01	; 1
     a56:	90 dc       	rcall	.-1760   	; 0x378 <LCD_Clear_one_row>
			LCD_Clear_one_row(0);
     a58:	80 e0       	ldi	r24, 0x00	; 0
     a5a:	8e dc       	rcall	.-1764   	; 0x378 <LCD_Clear_one_row>
     a5c:	a2 e4       	ldi	r26, 0x42	; 66
     a5e:	b1 e0       	ldi	r27, 0x01	; 1
     a60:	22 c0       	rjmp	.+68     	; 0xaa6 <process_pc_button_1+0x34e>
     a62:	11 96       	adiw	r26, 0x01	; 1
}

static inline void LCD_Str(const char *str)
{
    while (*str != 0) {
        LCD_Char((uint8_t)*str++);
     a64:	81 e0       	ldi	r24, 0x01	; 1
     a66:	06 c0       	rjmp	.+12     	; 0xa74 <process_pc_button_1+0x31c>
     a68:	e6 e6       	ldi	r30, 0x66	; 102
	#else
		//round up by default
		__ticks_dc = (uint32_t)(ceil(fabs(__tmp)));
	#endif

	__builtin_avr_delay_cycles(__ticks_dc);
     a6a:	fe e0       	ldi	r31, 0x0E	; 14
     a6c:	31 97       	sbiw	r30, 0x01	; 1
     a6e:	f1 f7       	brne	.-4      	; 0xa6c <process_pc_button_1+0x314>
     a70:	00 00       	nop
     a72:	82 2f       	mov	r24, r18
    LCD_CTRL &= ~(1 << LCD_EN);   // E low
}

static inline void LCD_Delay(uint8_t ms)
{
    while (ms--) _delay_ms(1);
     a74:	2f ef       	ldi	r18, 0xFF	; 255
     a76:	28 0f       	add	r18, r24
     a78:	81 11       	cpse	r24, r1
     a7a:	f6 cf       	rjmp	.-20     	; 0xa68 <process_pc_button_1+0x310>
     a7c:	e5 e6       	ldi	r30, 0x65	; 101
static inline void LCD_Cursor_Shift(uint8_t p);
static inline void LCD_Cursor_Home(void);

static inline void LCD_Data(uint8_t ch)
{
    LCD_CTRL |= (1 << LCD_RS);    // RS=1 -> data
     a7e:	f0 e0       	ldi	r31, 0x00	; 0
     a80:	80 81       	ld	r24, Z
     a82:	84 60       	ori	r24, 0x04	; 4
     a84:	80 83       	st	Z, r24
     a86:	80 81       	ld	r24, Z
    LCD_CTRL &= ~(1 << LCD_RW);   // RW=0 -> write
     a88:	8d 7f       	andi	r24, 0xFD	; 253
     a8a:	80 83       	st	Z, r24
     a8c:	80 81       	ld	r24, Z
    LCD_CTRL |= (1 << LCD_EN);    // E high
     a8e:	81 60       	ori	r24, 0x01	; 1
     a90:	80 83       	st	Z, r24
     a92:	46 ef       	ldi	r20, 0xF6	; 246
	#else
		//round up by default
		__ticks_dc = (uint32_t)(ceil(fabs(__tmp)));
	#endif

	__builtin_avr_delay_cycles(__ticks_dc);
     a94:	4a 95       	dec	r20
     a96:	f1 f7       	brne	.-4      	; 0xa94 <process_pc_button_1+0x33c>
     a98:	9b bb       	out	0x1b, r25	; 27
    _delay_us(50);
    LCD_WDATA = ch;               // put data
     a9a:	56 ef       	ldi	r21, 0xF6	; 246
     a9c:	5a 95       	dec	r21
     a9e:	f1 f7       	brne	.-4      	; 0xa9c <process_pc_button_1+0x344>
     aa0:	80 81       	ld	r24, Z
    _delay_us(50);
    LCD_CTRL &= ~(1 << LCD_EN);   // E low
     aa2:	8e 7f       	andi	r24, 0xFE	; 254
     aa4:	80 83       	st	Z, r24
     aa6:	9c 91       	ld	r25, X
    LCD_Data(ch);
}

static inline void LCD_Str(const char *str)
{
    while (*str != 0) {
     aa8:	91 11       	cpse	r25, r1
     aaa:	db cf       	rjmp	.-74     	; 0xa62 <process_pc_button_1+0x30a>
     aac:	08 95       	ret

00000aae <process_pc_button_2>:
     aae:	86 17       	cp	r24, r22
	static uint16_t last_execution_time = 0;
	static uint8_t local_lcd_column_pose = 0;
	static uint8_t character_shifter = 0;
	static char predefined_string[] = "Tech University of KOREA, Department of electronic ";

	if((param_program_status != param_previous_program_status) )
     ab0:	c1 f0       	breq	.+48     	; 0xae2 <process_pc_button_2+0x34>
	{
		// reset static variables when not in STATUS_SEND_A
		send_count = 0;
     ab2:	10 92 d2 01 	sts	0x01D2, r1	; 0x8001d2 <send_count.2358>
		// last_execution_time = 0;
		local_lcd_column_pose = 0;
     ab6:	10 92 d1 01 	sts	0x01D1, r1	; 0x8001d1 <local_lcd_column_pose.2360>
		character_shifter = 0;
     aba:	10 92 d0 01 	sts	0x01D0, r1	; 0x8001d0 <character_shifter.2361>

		LCD_Clear_one_row(0);
     abe:	80 e0       	ldi	r24, 0x00	; 0
     ac0:	5b dc       	rcall	.-1866   	; 0x378 <LCD_Clear_one_row>
		LCD_Clear_one_row(1);
     ac2:	81 e0       	ldi	r24, 0x01	; 1
     ac4:	59 dc       	rcall	.-1870   	; 0x378 <LCD_Clear_one_row>
     ac6:	e8 e6       	ldi	r30, 0x68	; 104
     ac8:	f1 e0       	ldi	r31, 0x01	; 1
     aca:	07 c0       	rjmp	.+14     	; 0xada <process_pc_button_2+0x2c>
        putch_USART1(*str++);
     acc:	31 96       	adiw	r30, 0x01	; 1
    UCSR1C = _BV(UCSZ11) | _BV(UCSZ10); // 8N1
}

static inline void putch_USART1(char data)
{
    while (!(UCSR1A & _BV(UDRE1))) {;}
     ace:	80 91 9b 00 	lds	r24, 0x009B	; 0x80009b <__TEXT_REGION_LENGTH__+0x7e009b>
     ad2:	85 ff       	sbrs	r24, 5
     ad4:	fc cf       	rjmp	.-8      	; 0xace <process_pc_button_2+0x20>
    UDR1 = data;
     ad6:	90 93 9c 00 	sts	0x009C, r25	; 0x80009c <__TEXT_REGION_LENGTH__+0x7e009c>
}

static inline void puts_USART1(char *str)
{
    while (*str != 0) {
     ada:	90 81       	ld	r25, Z
     adc:	91 11       	cpse	r25, r1
     ade:	f6 cf       	rjmp	.-20     	; 0xacc <process_pc_button_2+0x1e>
     ae0:	08 95       	ret
		param_previous_program_status = param_program_status;
	}
	else // continue
	
	// if(global_timer_sec - last_execution_time >= SENDING_PERIOD_SEC) // every SENDING_PERIOD_SEC seconds
	if(global_timer_100ms - last_execution_time >= SENDING_PERIOD_100MS * 5) // every SENDING_PERIOD_100MS seconds
     ae2:	80 91 de 01 	lds	r24, 0x01DE	; 0x8001de <global_timer_100ms>
     ae6:	90 91 df 01 	lds	r25, 0x01DF	; 0x8001df <global_timer_100ms+0x1>
     aea:	20 91 ce 01 	lds	r18, 0x01CE	; 0x8001ce <__data_end>
     aee:	30 91 cf 01 	lds	r19, 0x01CF	; 0x8001cf <__data_end+0x1>
     af2:	82 1b       	sub	r24, r18
     af4:	93 0b       	sbc	r25, r19
     af6:	05 97       	sbiw	r24, 0x05	; 5
     af8:	08 f4       	brcc	.+2      	; 0xafc <process_pc_button_2+0x4e>
     afa:	95 c1       	rjmp	.+810    	; 0xe26 <process_pc_button_2+0x378>
	{
		// last_execution_time = global_timer_sec;
		last_execution_time = global_timer_100ms;
     afc:	80 91 de 01 	lds	r24, 0x01DE	; 0x8001de <global_timer_100ms>
     b00:	90 91 df 01 	lds	r25, 0x01DF	; 0x8001df <global_timer_100ms+0x1>
     b04:	90 93 cf 01 	sts	0x01CF, r25	; 0x8001cf <__data_end+0x1>
     b08:	80 93 ce 01 	sts	0x01CE, r24	; 0x8001ce <__data_end>
		if(character_shifter >= strlen(predefined_string)) character_shifter = 0;
     b0c:	80 91 d0 01 	lds	r24, 0x01D0	; 0x8001d0 <character_shifter.2361>
     b10:	90 e0       	ldi	r25, 0x00	; 0
     b12:	e0 e0       	ldi	r30, 0x00	; 0
     b14:	f1 e0       	ldi	r31, 0x01	; 1
     b16:	01 90       	ld	r0, Z+
     b18:	00 20       	and	r0, r0
     b1a:	e9 f7       	brne	.-6      	; 0xb16 <process_pc_button_2+0x68>
     b1c:	31 97       	sbiw	r30, 0x01	; 1
     b1e:	e0 50       	subi	r30, 0x00	; 0
     b20:	f1 40       	sbci	r31, 0x01	; 1
     b22:	8e 17       	cp	r24, r30
     b24:	9f 07       	cpc	r25, r31
     b26:	10 f0       	brcs	.+4      	; 0xb2c <process_pc_button_2+0x7e>
     b28:	10 92 d0 01 	sts	0x01D0, r1	; 0x8001d0 <character_shifter.2361>
		// wrap around after end of string, strlenÏùÑ Ïù¥Ïö©ÌïòÏó¨ Í∏ÄÏûêÏàòÎ•º Í≥ÑÏÇ∞ÌïòÏó¨ ÌòÑÏû¨ shifterÍ∞Ä Î¨∏ÏûêÏùò ÏàòÎ≥¥Îã§ ÎÑòÏßÄ Î™ªÌïòÎèÑÎ°ù Î∞©ÏßÄÌï®.
		twi_result = TWI_Master_Transmit(predefined_string[character_shifter], SLAVE_ADDR);
     b2c:	e0 91 d0 01 	lds	r30, 0x01D0	; 0x8001d0 <character_shifter.2361>
     b30:	f0 e0       	ldi	r31, 0x00	; 0
     b32:	e0 50       	subi	r30, 0x00	; 0
     b34:	ff 4f       	sbci	r31, 0xFF	; 255
     b36:	50 81       	ld	r21, Z
}

// START
static inline uint8_t TWI_Start(void)
{
    TWCR = (1<<TWINT) | (1<<TWSTA) | (1<<TWEN);	// START Ω≈»£ ∫∏≥ª±‚
     b38:	84 ea       	ldi	r24, 0xA4	; 164
     b3a:	80 93 74 00 	sts	0x0074, r24	; 0x800074 <__TEXT_REGION_LENGTH__+0x7e0074>
// Ω≈»£ ¿¸º€ øœ∑· ∞ÀªÁ π◊ Status »Æ¿Œ + Timeout Check 
// Error code: 0=no error, 1=timeout, 2=status mismatch

static inline uint8_t TWI_TransCheck_ACK(uint8_t Stat)
{
    uint16_t cnt = 0;
     b3e:	80 e0       	ldi	r24, 0x00	; 0
     b40:	90 e0       	ldi	r25, 0x00	; 0
     b42:	07 c0       	rjmp	.+14     	; 0xb52 <process_pc_button_2+0xa4>
    while (!(TWCR & (1<<TWINT)))				// ∆–≈∂ ¿¸º€ øœ∑·µ… ∂ß ±Ó¡ˆ wait
	{				
        if (cnt++ > ExtDev_ERR_MAX_CNT) return 1; // timeout
     b44:	9c 01       	movw	r18, r24
     b46:	2f 5f       	subi	r18, 0xFF	; 255
     b48:	3f 4f       	sbci	r19, 0xFF	; 255
     b4a:	81 3d       	cpi	r24, 0xD1	; 209
     b4c:	97 40       	sbci	r25, 0x07	; 7
     b4e:	60 f4       	brcc	.+24     	; 0xb68 <process_pc_button_2+0xba>
     b50:	c9 01       	movw	r24, r18
// Error code: 0=no error, 1=timeout, 2=status mismatch

static inline uint8_t TWI_TransCheck_ACK(uint8_t Stat)
{
    uint16_t cnt = 0;
    while (!(TWCR & (1<<TWINT)))				// ∆–≈∂ ¿¸º€ øœ∑·µ… ∂ß ±Ó¡ˆ wait
     b52:	20 91 74 00 	lds	r18, 0x0074	; 0x800074 <__TEXT_REGION_LENGTH__+0x7e0074>
     b56:	22 23       	and	r18, r18
     b58:	ac f7       	brge	.-22     	; 0xb44 <process_pc_button_2+0x96>
	{				
        if (cnt++ > ExtDev_ERR_MAX_CNT) return 1; // timeout
    }
    if ((TWSR & 0xF8) != Stat) return 2;         // status mismatch, ¿¸º€ ∞ÀªÁ error(2 π›»Ø)
     b5a:	80 91 71 00 	lds	r24, 0x0071	; 0x800071 <__TEXT_REGION_LENGTH__+0x7e0071>
     b5e:	88 7f       	andi	r24, 0xF8	; 248
     b60:	88 30       	cpi	r24, 0x08	; 8
     b62:	21 f0       	breq	.+8      	; 0xb6c <process_pc_button_2+0xbe>
     b64:	42 e0       	ldi	r20, 0x02	; 2
     b66:	03 c0       	rjmp	.+6      	; 0xb6e <process_pc_button_2+0xc0>
static inline uint8_t TWI_TransCheck_ACK(uint8_t Stat)
{
    uint16_t cnt = 0;
    while (!(TWCR & (1<<TWINT)))				// ∆–≈∂ ¿¸º€ øœ∑·µ… ∂ß ±Ó¡ˆ wait
	{				
        if (cnt++ > ExtDev_ERR_MAX_CNT) return 1; // timeout
     b68:	41 e0       	ldi	r20, 0x01	; 1
     b6a:	01 c0       	rjmp	.+2      	; 0xb6e <process_pc_button_2+0xc0>
    }
    if ((TWSR & 0xF8) != Stat) return 2;         // status mismatch, ¿¸º€ ∞ÀªÁ error(2 π›»Ø)
    return 0;
     b6c:	40 e0       	ldi	r20, 0x00	; 0

// Master transmit one byte
static inline uint8_t TWI_Master_Transmit(uint8_t Data, uint8_t Addr)
{
    uint8_t ret = TWI_Start();
    if (ret) return ret;
     b6e:	41 11       	cpse	r20, r1
     b70:	3e c0       	rjmp	.+124    	; 0xbee <process_pc_button_2+0x140>
}

// SLA+W
static inline uint8_t TWI_Write_SLAW(uint8_t Addr)
{
    TWDR = Addr;							// 8-bit slave address (W bit assumed in Addr)
     b72:	88 e0       	ldi	r24, 0x08	; 8
     b74:	80 93 73 00 	sts	0x0073, r24	; 0x800073 <__TEXT_REGION_LENGTH__+0x7e0073>
    TWCR = (1<<TWINT) | (1<<TWEN);			// SLA + W ∆–≈∂ ∫∏≥ª±‚  
     b78:	84 e8       	ldi	r24, 0x84	; 132
     b7a:	80 93 74 00 	sts	0x0074, r24	; 0x800074 <__TEXT_REGION_LENGTH__+0x7e0074>
// Ω≈»£ ¿¸º€ øœ∑· ∞ÀªÁ π◊ Status »Æ¿Œ + Timeout Check 
// Error code: 0=no error, 1=timeout, 2=status mismatch

static inline uint8_t TWI_TransCheck_ACK(uint8_t Stat)
{
    uint16_t cnt = 0;
     b7e:	80 e0       	ldi	r24, 0x00	; 0
     b80:	90 e0       	ldi	r25, 0x00	; 0
     b82:	07 c0       	rjmp	.+14     	; 0xb92 <process_pc_button_2+0xe4>
    while (!(TWCR & (1<<TWINT)))				// ∆–≈∂ ¿¸º€ øœ∑·µ… ∂ß ±Ó¡ˆ wait
	{				
        if (cnt++ > ExtDev_ERR_MAX_CNT) return 1; // timeout
     b84:	9c 01       	movw	r18, r24
     b86:	2f 5f       	subi	r18, 0xFF	; 255
     b88:	3f 4f       	sbci	r19, 0xFF	; 255
     b8a:	81 3d       	cpi	r24, 0xD1	; 209
     b8c:	97 40       	sbci	r25, 0x07	; 7
     b8e:	60 f4       	brcc	.+24     	; 0xba8 <process_pc_button_2+0xfa>
     b90:	c9 01       	movw	r24, r18
// Error code: 0=no error, 1=timeout, 2=status mismatch

static inline uint8_t TWI_TransCheck_ACK(uint8_t Stat)
{
    uint16_t cnt = 0;
    while (!(TWCR & (1<<TWINT)))				// ∆–≈∂ ¿¸º€ øœ∑·µ… ∂ß ±Ó¡ˆ wait
     b92:	20 91 74 00 	lds	r18, 0x0074	; 0x800074 <__TEXT_REGION_LENGTH__+0x7e0074>
     b96:	22 23       	and	r18, r18
     b98:	ac f7       	brge	.-22     	; 0xb84 <process_pc_button_2+0xd6>
	{				
        if (cnt++ > ExtDev_ERR_MAX_CNT) return 1; // timeout
    }
    if ((TWSR & 0xF8) != Stat) return 2;         // status mismatch, ¿¸º€ ∞ÀªÁ error(2 π›»Ø)
     b9a:	80 91 71 00 	lds	r24, 0x0071	; 0x800071 <__TEXT_REGION_LENGTH__+0x7e0071>
     b9e:	88 7f       	andi	r24, 0xF8	; 248
     ba0:	88 31       	cpi	r24, 0x18	; 24
     ba2:	19 f0       	breq	.+6      	; 0xbaa <process_pc_button_2+0xfc>
     ba4:	42 e0       	ldi	r20, 0x02	; 2
     ba6:	01 c0       	rjmp	.+2      	; 0xbaa <process_pc_button_2+0xfc>
static inline uint8_t TWI_TransCheck_ACK(uint8_t Stat)
{
    uint16_t cnt = 0;
    while (!(TWCR & (1<<TWINT)))				// ∆–≈∂ ¿¸º€ øœ∑·µ… ∂ß ±Ó¡ˆ wait
	{				
        if (cnt++ > ExtDev_ERR_MAX_CNT) return 1; // timeout
     ba8:	41 e0       	ldi	r20, 0x01	; 1
static inline uint8_t TWI_Master_Transmit(uint8_t Data, uint8_t Addr)
{
    uint8_t ret = TWI_Start();
    if (ret) return ret;
    ret = TWI_Write_SLAW(Addr);
    if (ret) return ret;
     baa:	41 11       	cpse	r20, r1
     bac:	20 c0       	rjmp	.+64     	; 0xbee <process_pc_button_2+0x140>
}

// DATA (write), µ•¿Ã≈Õ ∆–≈∂ ¿¸º€
static inline uint8_t TWI_Write_Data(uint8_t Data)
{
    TWDR = Data;
     bae:	50 93 73 00 	sts	0x0073, r21	; 0x800073 <__TEXT_REGION_LENGTH__+0x7e0073>
    TWCR = (1<<TWINT) | (1<<TWEN);		   // µ•¿Ã≈Õ ∆–≈∂ º€Ω≈
     bb2:	84 e8       	ldi	r24, 0x84	; 132
     bb4:	80 93 74 00 	sts	0x0074, r24	; 0x800074 <__TEXT_REGION_LENGTH__+0x7e0074>
// Ω≈»£ ¿¸º€ øœ∑· ∞ÀªÁ π◊ Status »Æ¿Œ + Timeout Check 
// Error code: 0=no error, 1=timeout, 2=status mismatch

static inline uint8_t TWI_TransCheck_ACK(uint8_t Stat)
{
    uint16_t cnt = 0;
     bb8:	80 e0       	ldi	r24, 0x00	; 0
     bba:	90 e0       	ldi	r25, 0x00	; 0
     bbc:	07 c0       	rjmp	.+14     	; 0xbcc <process_pc_button_2+0x11e>
    while (!(TWCR & (1<<TWINT)))				// ∆–≈∂ ¿¸º€ øœ∑·µ… ∂ß ±Ó¡ˆ wait
	{				
        if (cnt++ > ExtDev_ERR_MAX_CNT) return 1; // timeout
     bbe:	9c 01       	movw	r18, r24
     bc0:	2f 5f       	subi	r18, 0xFF	; 255
     bc2:	3f 4f       	sbci	r19, 0xFF	; 255
     bc4:	81 3d       	cpi	r24, 0xD1	; 209
     bc6:	97 40       	sbci	r25, 0x07	; 7
     bc8:	60 f4       	brcc	.+24     	; 0xbe2 <process_pc_button_2+0x134>
     bca:	c9 01       	movw	r24, r18
// Error code: 0=no error, 1=timeout, 2=status mismatch

static inline uint8_t TWI_TransCheck_ACK(uint8_t Stat)
{
    uint16_t cnt = 0;
    while (!(TWCR & (1<<TWINT)))				// ∆–≈∂ ¿¸º€ øœ∑·µ… ∂ß ±Ó¡ˆ wait
     bcc:	20 91 74 00 	lds	r18, 0x0074	; 0x800074 <__TEXT_REGION_LENGTH__+0x7e0074>
     bd0:	22 23       	and	r18, r18
     bd2:	ac f7       	brge	.-22     	; 0xbbe <process_pc_button_2+0x110>
	{				
        if (cnt++ > ExtDev_ERR_MAX_CNT) return 1; // timeout
    }
    if ((TWSR & 0xF8) != Stat) return 2;         // status mismatch, ¿¸º€ ∞ÀªÁ error(2 π›»Ø)
     bd4:	80 91 71 00 	lds	r24, 0x0071	; 0x800071 <__TEXT_REGION_LENGTH__+0x7e0071>
     bd8:	88 7f       	andi	r24, 0xF8	; 248
     bda:	88 32       	cpi	r24, 0x28	; 40
     bdc:	19 f0       	breq	.+6      	; 0xbe4 <process_pc_button_2+0x136>
     bde:	42 e0       	ldi	r20, 0x02	; 2
     be0:	01 c0       	rjmp	.+2      	; 0xbe4 <process_pc_button_2+0x136>
static inline uint8_t TWI_TransCheck_ACK(uint8_t Stat)
{
    uint16_t cnt = 0;
    while (!(TWCR & (1<<TWINT)))				// ∆–≈∂ ¿¸º€ øœ∑·µ… ∂ß ±Ó¡ˆ wait
	{				
        if (cnt++ > ExtDev_ERR_MAX_CNT) return 1; // timeout
     be2:	41 e0       	ldi	r20, 0x01	; 1
    uint8_t ret = TWI_Start();
    if (ret) return ret;
    ret = TWI_Write_SLAW(Addr);
    if (ret) return ret;
    ret = TWI_Write_Data(Data);
    if (ret) return ret;
     be4:	41 11       	cpse	r20, r1
     be6:	03 c0       	rjmp	.+6      	; 0xbee <process_pc_button_2+0x140>
}

// STOP
static inline void TWI_Stop(void)
{
    TWCR = (1<<TWINT) | (1<<TWSTO) | (1<<TWEN);
     be8:	84 e9       	ldi	r24, 0x94	; 148
     bea:	80 93 74 00 	sts	0x0074, r24	; 0x800074 <__TEXT_REGION_LENGTH__+0x7e0074>
		// sprintf((char*)global_usart_send_msg_buffer, "%3d sec\r\n", global_timer_sec);
		// puts_USART1((char*)global_usart_send_msg_buffer); // send current seconds to USART1
		if(twi_result == 0)
     bee:	41 11       	cpse	r20, r1
     bf0:	ee c0       	rjmp	.+476    	; 0xdce <process_pc_button_2+0x320>
    LCD_CTRL &= ~(1 << LCD_EN);   // E low
}

static inline void LCD_Comm(uint8_t command)
{
    LCD_CTRL &= ~(1 << LCD_RS);   // RS=0 -> command
     bf2:	e5 e6       	ldi	r30, 0x65	; 101
     bf4:	f0 e0       	ldi	r31, 0x00	; 0
     bf6:	80 81       	ld	r24, Z
     bf8:	8b 7f       	andi	r24, 0xFB	; 251
     bfa:	80 83       	st	Z, r24
    LCD_CTRL &= ~(1 << LCD_RW);   // RW=0 -> write
     bfc:	80 81       	ld	r24, Z
     bfe:	8d 7f       	andi	r24, 0xFD	; 253
     c00:	80 83       	st	Z, r24
    LCD_CTRL |= (1 << LCD_EN);    // E high
     c02:	80 81       	ld	r24, Z
     c04:	81 60       	ori	r24, 0x01	; 1
     c06:	80 83       	st	Z, r24
     c08:	46 ef       	ldi	r20, 0xF6	; 246
     c0a:	4a 95       	dec	r20
     c0c:	f1 f7       	brne	.-4      	; 0xc0a <process_pc_button_2+0x15c>
    _delay_us(50);
    LCD_WINST = command;          // put command
     c0e:	80 e8       	ldi	r24, 0x80	; 128
     c10:	8b bb       	out	0x1b, r24	; 27
     c12:	56 ef       	ldi	r21, 0xF6	; 246
     c14:	5a 95       	dec	r21
     c16:	f1 f7       	brne	.-4      	; 0xc14 <process_pc_button_2+0x166>
    _delay_us(50);
    LCD_CTRL &= ~(1 << LCD_EN);   // E low
     c18:	80 81       	ld	r24, Z
     c1a:	8e 7f       	andi	r24, 0xFE	; 254
     c1c:	80 83       	st	Z, r24
		{
			LCD_Pos(0, 0);
			sprintf((char*)global_lcd_row_1, "TX count: %d", ++send_count);
     c1e:	80 91 d2 01 	lds	r24, 0x01D2	; 0x8001d2 <send_count.2358>
     c22:	8f 5f       	subi	r24, 0xFF	; 255
     c24:	80 93 d2 01 	sts	0x01D2, r24	; 0x8001d2 <send_count.2358>
     c28:	1f 92       	push	r1
     c2a:	8f 93       	push	r24
     c2c:	8f e4       	ldi	r24, 0x4F	; 79
     c2e:	91 e0       	ldi	r25, 0x01	; 1
     c30:	9f 93       	push	r25
     c32:	8f 93       	push	r24
     c34:	81 ee       	ldi	r24, 0xE1	; 225
     c36:	92 e0       	ldi	r25, 0x02	; 2
     c38:	9f 93       	push	r25
     c3a:	8f 93       	push	r24
     c3c:	4c d5       	rcall	.+2712   	; 0x16d6 <sprintf>
     c3e:	0f 90       	pop	r0
     c40:	0f 90       	pop	r0
     c42:	0f 90       	pop	r0
     c44:	0f 90       	pop	r0
     c46:	0f 90       	pop	r0
     c48:	0f 90       	pop	r0
     c4a:	a1 ee       	ldi	r26, 0xE1	; 225
     c4c:	b2 e0       	ldi	r27, 0x02	; 2
     c4e:	22 c0       	rjmp	.+68     	; 0xc94 <process_pc_button_2+0x1e6>
}

static inline void LCD_Str(const char *str)
{
    while (*str != 0) {
        LCD_Char((uint8_t)*str++);
     c50:	11 96       	adiw	r26, 0x01	; 1
     c52:	81 e0       	ldi	r24, 0x01	; 1
     c54:	06 c0       	rjmp	.+12     	; 0xc62 <process_pc_button_2+0x1b4>
	#else
		//round up by default
		__ticks_dc = (uint32_t)(ceil(fabs(__tmp)));
	#endif

	__builtin_avr_delay_cycles(__ticks_dc);
     c56:	e6 e6       	ldi	r30, 0x66	; 102
     c58:	fe e0       	ldi	r31, 0x0E	; 14
     c5a:	31 97       	sbiw	r30, 0x01	; 1
     c5c:	f1 f7       	brne	.-4      	; 0xc5a <process_pc_button_2+0x1ac>
     c5e:	00 00       	nop
    LCD_CTRL &= ~(1 << LCD_EN);   // E low
}

static inline void LCD_Delay(uint8_t ms)
{
    while (ms--) _delay_ms(1);
     c60:	82 2f       	mov	r24, r18
     c62:	2f ef       	ldi	r18, 0xFF	; 255
     c64:	28 0f       	add	r18, r24
     c66:	81 11       	cpse	r24, r1
     c68:	f6 cf       	rjmp	.-20     	; 0xc56 <process_pc_button_2+0x1a8>
static inline void LCD_Cursor_Shift(uint8_t p);
static inline void LCD_Cursor_Home(void);

static inline void LCD_Data(uint8_t ch)
{
    LCD_CTRL |= (1 << LCD_RS);    // RS=1 -> data
     c6a:	e5 e6       	ldi	r30, 0x65	; 101
     c6c:	f0 e0       	ldi	r31, 0x00	; 0
     c6e:	80 81       	ld	r24, Z
     c70:	84 60       	ori	r24, 0x04	; 4
     c72:	80 83       	st	Z, r24
    LCD_CTRL &= ~(1 << LCD_RW);   // RW=0 -> write
     c74:	80 81       	ld	r24, Z
     c76:	8d 7f       	andi	r24, 0xFD	; 253
     c78:	80 83       	st	Z, r24
    LCD_CTRL |= (1 << LCD_EN);    // E high
     c7a:	80 81       	ld	r24, Z
     c7c:	81 60       	ori	r24, 0x01	; 1
     c7e:	80 83       	st	Z, r24
	#else
		//round up by default
		__ticks_dc = (uint32_t)(ceil(fabs(__tmp)));
	#endif

	__builtin_avr_delay_cycles(__ticks_dc);
     c80:	46 ef       	ldi	r20, 0xF6	; 246
     c82:	4a 95       	dec	r20
     c84:	f1 f7       	brne	.-4      	; 0xc82 <process_pc_button_2+0x1d4>
    _delay_us(50);
    LCD_WDATA = ch;               // put data
     c86:	9b bb       	out	0x1b, r25	; 27
     c88:	56 ef       	ldi	r21, 0xF6	; 246
     c8a:	5a 95       	dec	r21
     c8c:	f1 f7       	brne	.-4      	; 0xc8a <process_pc_button_2+0x1dc>
    _delay_us(50);
    LCD_CTRL &= ~(1 << LCD_EN);   // E low
     c8e:	80 81       	ld	r24, Z
     c90:	8e 7f       	andi	r24, 0xFE	; 254
     c92:	80 83       	st	Z, r24
    LCD_Data(ch);
}

static inline void LCD_Str(const char *str)
{
    while (*str != 0) {
     c94:	9c 91       	ld	r25, X
     c96:	91 11       	cpse	r25, r1
     c98:	db cf       	rjmp	.-74     	; 0xc50 <process_pc_button_2+0x1a2>
			LCD_Str((char*)global_lcd_row_1);
			
			if(local_lcd_column_pose >= 16)
     c9a:	80 91 d1 01 	lds	r24, 0x01D1	; 0x8001d1 <local_lcd_column_pose.2360>
     c9e:	80 31       	cpi	r24, 0x10	; 16
     ca0:	08 f4       	brcc	.+2      	; 0xca4 <process_pc_button_2+0x1f6>
			{
				LCD_Clear_one_row(1);
     ca2:	4c c0       	rjmp	.+152    	; 0xd3c <process_pc_button_2+0x28e>
     ca4:	81 e0       	ldi	r24, 0x01	; 1
     ca6:	68 db       	rcall	.-2352   	; 0x378 <LCD_Clear_one_row>
				local_lcd_column_pose = 0;
     ca8:	10 92 d1 01 	sts	0x01D1, r1	; 0x8001d1 <local_lcd_column_pose.2360>
    LCD_CTRL &= ~(1 << LCD_EN);   // E low
}

static inline void LCD_Comm(uint8_t command)
{
    LCD_CTRL &= ~(1 << LCD_RS);   // RS=0 -> command
     cac:	e5 e6       	ldi	r30, 0x65	; 101
     cae:	f0 e0       	ldi	r31, 0x00	; 0
     cb0:	80 81       	ld	r24, Z
     cb2:	8b 7f       	andi	r24, 0xFB	; 251
     cb4:	80 83       	st	Z, r24
    LCD_CTRL &= ~(1 << LCD_RW);   // RW=0 -> write
     cb6:	80 81       	ld	r24, Z
     cb8:	8d 7f       	andi	r24, 0xFD	; 253
     cba:	80 83       	st	Z, r24
    LCD_CTRL |= (1 << LCD_EN);    // E high
     cbc:	80 81       	ld	r24, Z
     cbe:	81 60       	ori	r24, 0x01	; 1
     cc0:	80 83       	st	Z, r24
     cc2:	66 ef       	ldi	r22, 0xF6	; 246
     cc4:	6a 95       	dec	r22
     cc6:	f1 f7       	brne	.-4      	; 0xcc4 <process_pc_button_2+0x216>
    _delay_us(50);
    LCD_WINST = command;          // put command
     cc8:	80 ec       	ldi	r24, 0xC0	; 192
     cca:	8b bb       	out	0x1b, r24	; 27
     ccc:	86 ef       	ldi	r24, 0xF6	; 246
     cce:	8a 95       	dec	r24
     cd0:	f1 f7       	brne	.-4      	; 0xcce <process_pc_button_2+0x220>
    _delay_us(50);
    LCD_CTRL &= ~(1 << LCD_EN);   // E low
     cd2:	80 81       	ld	r24, Z
     cd4:	8e 7f       	andi	r24, 0xFE	; 254
     cd6:	80 83       	st	Z, r24
				LCD_Pos(1, local_lcd_column_pose);
				LCD_Char(predefined_string[character_shifter]);
     cd8:	e0 91 d0 01 	lds	r30, 0x01D0	; 0x8001d0 <character_shifter.2361>
     cdc:	f0 e0       	ldi	r31, 0x00	; 0
     cde:	e0 50       	subi	r30, 0x00	; 0
     ce0:	ff 4f       	sbci	r31, 0xFF	; 255
     ce2:	20 81       	ld	r18, Z
     ce4:	81 e0       	ldi	r24, 0x01	; 1
     ce6:	06 c0       	rjmp	.+12     	; 0xcf4 <process_pc_button_2+0x246>
	#else
		//round up by default
		__ticks_dc = (uint32_t)(ceil(fabs(__tmp)));
	#endif

	__builtin_avr_delay_cycles(__ticks_dc);
     ce8:	e6 e6       	ldi	r30, 0x66	; 102
     cea:	fe e0       	ldi	r31, 0x0E	; 14
     cec:	31 97       	sbiw	r30, 0x01	; 1
     cee:	f1 f7       	brne	.-4      	; 0xcec <process_pc_button_2+0x23e>
     cf0:	00 00       	nop
}

static inline void LCD_Delay(uint8_t ms)
{
    while (ms--) _delay_ms(1);
     cf2:	89 2f       	mov	r24, r25
     cf4:	9f ef       	ldi	r25, 0xFF	; 255
     cf6:	98 0f       	add	r25, r24
     cf8:	81 11       	cpse	r24, r1
     cfa:	f6 cf       	rjmp	.-20     	; 0xce8 <process_pc_button_2+0x23a>
static inline void LCD_Cursor_Shift(uint8_t p);
static inline void LCD_Cursor_Home(void);

static inline void LCD_Data(uint8_t ch)
{
    LCD_CTRL |= (1 << LCD_RS);    // RS=1 -> data
     cfc:	e5 e6       	ldi	r30, 0x65	; 101
     cfe:	f0 e0       	ldi	r31, 0x00	; 0
     d00:	80 81       	ld	r24, Z
     d02:	84 60       	ori	r24, 0x04	; 4
     d04:	80 83       	st	Z, r24
    LCD_CTRL &= ~(1 << LCD_RW);   // RW=0 -> write
     d06:	80 81       	ld	r24, Z
     d08:	8d 7f       	andi	r24, 0xFD	; 253
     d0a:	80 83       	st	Z, r24
    LCD_CTRL |= (1 << LCD_EN);    // E high
     d0c:	80 81       	ld	r24, Z
     d0e:	81 60       	ori	r24, 0x01	; 1
     d10:	80 83       	st	Z, r24
	#else
		//round up by default
		__ticks_dc = (uint32_t)(ceil(fabs(__tmp)));
	#endif

	__builtin_avr_delay_cycles(__ticks_dc);
     d12:	46 ef       	ldi	r20, 0xF6	; 246
     d14:	4a 95       	dec	r20
     d16:	f1 f7       	brne	.-4      	; 0xd14 <process_pc_button_2+0x266>
    _delay_us(50);
    LCD_WDATA = ch;               // put data
     d18:	2b bb       	out	0x1b, r18	; 27
     d1a:	56 ef       	ldi	r21, 0xF6	; 246
     d1c:	5a 95       	dec	r21
     d1e:	f1 f7       	brne	.-4      	; 0xd1c <process_pc_button_2+0x26e>
    _delay_us(50);
    LCD_CTRL &= ~(1 << LCD_EN);   // E low
     d20:	80 81       	ld	r24, Z
     d22:	8e 7f       	andi	r24, 0xFE	; 254
     d24:	80 83       	st	Z, r24
				local_lcd_column_pose += 1;
     d26:	80 91 d1 01 	lds	r24, 0x01D1	; 0x8001d1 <local_lcd_column_pose.2360>
     d2a:	8f 5f       	subi	r24, 0xFF	; 255
     d2c:	80 93 d1 01 	sts	0x01D1, r24	; 0x8001d1 <local_lcd_column_pose.2360>
				character_shifter += 1;
     d30:	80 91 d0 01 	lds	r24, 0x01D0	; 0x8001d0 <character_shifter.2361>
     d34:	8f 5f       	subi	r24, 0xFF	; 255
     d36:	80 93 d0 01 	sts	0x01D0, r24	; 0x8001d0 <character_shifter.2361>
     d3a:	08 95       	ret
}

static inline void LCD_Pos(uint8_t x, uint8_t y)
{
    // x: row (0..1), y: column (0..15)
    LCD_Comm(0x80 | (x*0x40 + y));
     d3c:	80 5c       	subi	r24, 0xC0	; 192
     d3e:	80 68       	ori	r24, 0x80	; 128
    LCD_CTRL &= ~(1 << LCD_EN);   // E low
}

static inline void LCD_Comm(uint8_t command)
{
    LCD_CTRL &= ~(1 << LCD_RS);   // RS=0 -> command
     d40:	e5 e6       	ldi	r30, 0x65	; 101
     d42:	f0 e0       	ldi	r31, 0x00	; 0
     d44:	90 81       	ld	r25, Z
     d46:	9b 7f       	andi	r25, 0xFB	; 251
     d48:	90 83       	st	Z, r25
    LCD_CTRL &= ~(1 << LCD_RW);   // RW=0 -> write
     d4a:	90 81       	ld	r25, Z
     d4c:	9d 7f       	andi	r25, 0xFD	; 253
     d4e:	90 83       	st	Z, r25
    LCD_CTRL |= (1 << LCD_EN);    // E high
     d50:	90 81       	ld	r25, Z
     d52:	91 60       	ori	r25, 0x01	; 1
     d54:	90 83       	st	Z, r25
     d56:	66 ef       	ldi	r22, 0xF6	; 246
     d58:	6a 95       	dec	r22
     d5a:	f1 f7       	brne	.-4      	; 0xd58 <process_pc_button_2+0x2aa>
    _delay_us(50);
    LCD_WINST = command;          // put command
     d5c:	8b bb       	out	0x1b, r24	; 27
     d5e:	86 ef       	ldi	r24, 0xF6	; 246
     d60:	8a 95       	dec	r24
     d62:	f1 f7       	brne	.-4      	; 0xd60 <process_pc_button_2+0x2b2>
    _delay_us(50);
    LCD_CTRL &= ~(1 << LCD_EN);   // E low
     d64:	80 81       	ld	r24, Z
     d66:	8e 7f       	andi	r24, 0xFE	; 254
     d68:	80 83       	st	Z, r24
			}
			else
			{
				LCD_Pos(1, local_lcd_column_pose); // display current alphabet at row 1
				LCD_Char(predefined_string[character_shifter]);
     d6a:	e0 91 d0 01 	lds	r30, 0x01D0	; 0x8001d0 <character_shifter.2361>
     d6e:	f0 e0       	ldi	r31, 0x00	; 0
     d70:	e0 50       	subi	r30, 0x00	; 0
     d72:	ff 4f       	sbci	r31, 0xFF	; 255
     d74:	20 81       	ld	r18, Z
     d76:	81 e0       	ldi	r24, 0x01	; 1
     d78:	06 c0       	rjmp	.+12     	; 0xd86 <process_pc_button_2+0x2d8>
	#else
		//round up by default
		__ticks_dc = (uint32_t)(ceil(fabs(__tmp)));
	#endif

	__builtin_avr_delay_cycles(__ticks_dc);
     d7a:	e6 e6       	ldi	r30, 0x66	; 102
     d7c:	fe e0       	ldi	r31, 0x0E	; 14
     d7e:	31 97       	sbiw	r30, 0x01	; 1
     d80:	f1 f7       	brne	.-4      	; 0xd7e <process_pc_button_2+0x2d0>
     d82:	00 00       	nop
}

static inline void LCD_Delay(uint8_t ms)
{
    while (ms--) _delay_ms(1);
     d84:	89 2f       	mov	r24, r25
     d86:	9f ef       	ldi	r25, 0xFF	; 255
     d88:	98 0f       	add	r25, r24
     d8a:	81 11       	cpse	r24, r1
     d8c:	f6 cf       	rjmp	.-20     	; 0xd7a <process_pc_button_2+0x2cc>
static inline void LCD_Cursor_Shift(uint8_t p);
static inline void LCD_Cursor_Home(void);

static inline void LCD_Data(uint8_t ch)
{
    LCD_CTRL |= (1 << LCD_RS);    // RS=1 -> data
     d8e:	e5 e6       	ldi	r30, 0x65	; 101
     d90:	f0 e0       	ldi	r31, 0x00	; 0
     d92:	80 81       	ld	r24, Z
     d94:	84 60       	ori	r24, 0x04	; 4
     d96:	80 83       	st	Z, r24
    LCD_CTRL &= ~(1 << LCD_RW);   // RW=0 -> write
     d98:	80 81       	ld	r24, Z
     d9a:	8d 7f       	andi	r24, 0xFD	; 253
     d9c:	80 83       	st	Z, r24
    LCD_CTRL |= (1 << LCD_EN);    // E high
     d9e:	80 81       	ld	r24, Z
     da0:	81 60       	ori	r24, 0x01	; 1
     da2:	80 83       	st	Z, r24
	#else
		//round up by default
		__ticks_dc = (uint32_t)(ceil(fabs(__tmp)));
	#endif

	__builtin_avr_delay_cycles(__ticks_dc);
     da4:	46 ef       	ldi	r20, 0xF6	; 246
     da6:	4a 95       	dec	r20
     da8:	f1 f7       	brne	.-4      	; 0xda6 <process_pc_button_2+0x2f8>
    _delay_us(50);
    LCD_WDATA = ch;               // put data
     daa:	2b bb       	out	0x1b, r18	; 27
     dac:	56 ef       	ldi	r21, 0xF6	; 246
     dae:	5a 95       	dec	r21
     db0:	f1 f7       	brne	.-4      	; 0xdae <process_pc_button_2+0x300>
    _delay_us(50);
    LCD_CTRL &= ~(1 << LCD_EN);   // E low
     db2:	80 81       	ld	r24, Z
     db4:	8e 7f       	andi	r24, 0xFE	; 254
     db6:	80 83       	st	Z, r24
				local_lcd_column_pose += 1;
     db8:	80 91 d1 01 	lds	r24, 0x01D1	; 0x8001d1 <local_lcd_column_pose.2360>
     dbc:	8f 5f       	subi	r24, 0xFF	; 255
     dbe:	80 93 d1 01 	sts	0x01D1, r24	; 0x8001d1 <local_lcd_column_pose.2360>
				character_shifter += 1;
     dc2:	80 91 d0 01 	lds	r24, 0x01D0	; 0x8001d0 <character_shifter.2361>
     dc6:	8f 5f       	subi	r24, 0xFF	; 255
     dc8:	80 93 d0 01 	sts	0x01D0, r24	; 0x8001d0 <character_shifter.2361>
			}
		}
		else // twi error
		{
			// Error occurred during transmission
			LCD_Clear_one_row(1);
     dcc:	08 95       	ret
     dce:	81 e0       	ldi	r24, 0x01	; 1
     dd0:	d3 da       	rcall	.-2650   	; 0x378 <LCD_Clear_one_row>
			LCD_Clear_one_row(0);
     dd2:	80 e0       	ldi	r24, 0x00	; 0
     dd4:	d1 da       	rcall	.-2654   	; 0x378 <LCD_Clear_one_row>
     dd6:	a2 e4       	ldi	r26, 0x42	; 66
     dd8:	b1 e0       	ldi	r27, 0x01	; 1
     dda:	22 c0       	rjmp	.+68     	; 0xe20 <process_pc_button_2+0x372>
     ddc:	11 96       	adiw	r26, 0x01	; 1
}

static inline void LCD_Str(const char *str)
{
    while (*str != 0) {
        LCD_Char((uint8_t)*str++);
     dde:	81 e0       	ldi	r24, 0x01	; 1
     de0:	06 c0       	rjmp	.+12     	; 0xdee <process_pc_button_2+0x340>
     de2:	e6 e6       	ldi	r30, 0x66	; 102
	#else
		//round up by default
		__ticks_dc = (uint32_t)(ceil(fabs(__tmp)));
	#endif

	__builtin_avr_delay_cycles(__ticks_dc);
     de4:	fe e0       	ldi	r31, 0x0E	; 14
     de6:	31 97       	sbiw	r30, 0x01	; 1
     de8:	f1 f7       	brne	.-4      	; 0xde6 <process_pc_button_2+0x338>
     dea:	00 00       	nop
     dec:	82 2f       	mov	r24, r18
    LCD_CTRL &= ~(1 << LCD_EN);   // E low
}

static inline void LCD_Delay(uint8_t ms)
{
    while (ms--) _delay_ms(1);
     dee:	2f ef       	ldi	r18, 0xFF	; 255
     df0:	28 0f       	add	r18, r24
     df2:	81 11       	cpse	r24, r1
     df4:	f6 cf       	rjmp	.-20     	; 0xde2 <process_pc_button_2+0x334>
     df6:	e5 e6       	ldi	r30, 0x65	; 101
static inline void LCD_Cursor_Shift(uint8_t p);
static inline void LCD_Cursor_Home(void);

static inline void LCD_Data(uint8_t ch)
{
    LCD_CTRL |= (1 << LCD_RS);    // RS=1 -> data
     df8:	f0 e0       	ldi	r31, 0x00	; 0
     dfa:	80 81       	ld	r24, Z
     dfc:	84 60       	ori	r24, 0x04	; 4
     dfe:	80 83       	st	Z, r24
     e00:	80 81       	ld	r24, Z
    LCD_CTRL &= ~(1 << LCD_RW);   // RW=0 -> write
     e02:	8d 7f       	andi	r24, 0xFD	; 253
     e04:	80 83       	st	Z, r24
     e06:	80 81       	ld	r24, Z
    LCD_CTRL |= (1 << LCD_EN);    // E high
     e08:	81 60       	ori	r24, 0x01	; 1
     e0a:	80 83       	st	Z, r24
     e0c:	46 ef       	ldi	r20, 0xF6	; 246
	#else
		//round up by default
		__ticks_dc = (uint32_t)(ceil(fabs(__tmp)));
	#endif

	__builtin_avr_delay_cycles(__ticks_dc);
     e0e:	4a 95       	dec	r20
     e10:	f1 f7       	brne	.-4      	; 0xe0e <process_pc_button_2+0x360>
     e12:	9b bb       	out	0x1b, r25	; 27
    _delay_us(50);
    LCD_WDATA = ch;               // put data
     e14:	56 ef       	ldi	r21, 0xF6	; 246
     e16:	5a 95       	dec	r21
     e18:	f1 f7       	brne	.-4      	; 0xe16 <process_pc_button_2+0x368>
     e1a:	80 81       	ld	r24, Z
    _delay_us(50);
    LCD_CTRL &= ~(1 << LCD_EN);   // E low
     e1c:	8e 7f       	andi	r24, 0xFE	; 254
     e1e:	80 83       	st	Z, r24
     e20:	9c 91       	ld	r25, X
    LCD_Data(ch);
}

static inline void LCD_Str(const char *str)
{
    while (*str != 0) {
     e22:	91 11       	cpse	r25, r1
     e24:	db cf       	rjmp	.-74     	; 0xddc <process_pc_button_2+0x32e>
     e26:	08 95       	ret

00000e28 <main>:
     e28:	8f ef       	ldi	r24, 0xFF	; 255
    LCD_Delay(2);
}

static inline void LCD_PORT_Init(void)
{
    DDRA  = 0xFF;         // PORTA as output (data bus)
     e2a:	8a bb       	out	0x1a, r24	; 26
    LCD_CTRL_DDR |= 0x07; // PORTG bits 0..2 as output (E,RW,RS)
     e2c:	e4 e6       	ldi	r30, 0x64	; 100
     e2e:	f0 e0       	ldi	r31, 0x00	; 0
     e30:	80 81       	ld	r24, Z
     e32:	87 60       	ori	r24, 0x07	; 7
     e34:	80 83       	st	Z, r24
    LCD_CTRL &= ~(1 << LCD_EN);   // E low
}

static inline void LCD_Comm(uint8_t command)
{
    LCD_CTRL &= ~(1 << LCD_RS);   // RS=0 -> command
     e36:	e5 e6       	ldi	r30, 0x65	; 101
     e38:	f0 e0       	ldi	r31, 0x00	; 0
     e3a:	80 81       	ld	r24, Z
     e3c:	8b 7f       	andi	r24, 0xFB	; 251
     e3e:	80 83       	st	Z, r24
    LCD_CTRL &= ~(1 << LCD_RW);   // RW=0 -> write
     e40:	80 81       	ld	r24, Z
     e42:	8d 7f       	andi	r24, 0xFD	; 253
     e44:	80 83       	st	Z, r24
    LCD_CTRL |= (1 << LCD_EN);    // E high
     e46:	80 81       	ld	r24, Z
     e48:	81 60       	ori	r24, 0x01	; 1
     e4a:	80 83       	st	Z, r24
     e4c:	36 ef       	ldi	r19, 0xF6	; 246
     e4e:	3a 95       	dec	r19
     e50:	f1 f7       	brne	.-4      	; 0xe4e <main+0x26>
    _delay_us(50);
    LCD_WINST = command;          // put command
     e52:	88 e3       	ldi	r24, 0x38	; 56
     e54:	8b bb       	out	0x1b, r24	; 27
     e56:	46 ef       	ldi	r20, 0xF6	; 246
     e58:	4a 95       	dec	r20
     e5a:	f1 f7       	brne	.-4      	; 0xe58 <main+0x30>
    _delay_us(50);
    LCD_CTRL &= ~(1 << LCD_EN);   // E low
     e5c:	80 81       	ld	r24, Z
     e5e:	8e 7f       	andi	r24, 0xFE	; 254
     e60:	80 83       	st	Z, r24
     e62:	84 e0       	ldi	r24, 0x04	; 4
     e64:	06 c0       	rjmp	.+12     	; 0xe72 <main+0x4a>
	#else
		//round up by default
		__ticks_dc = (uint32_t)(ceil(fabs(__tmp)));
	#endif

	__builtin_avr_delay_cycles(__ticks_dc);
     e66:	e6 e6       	ldi	r30, 0x66	; 102
     e68:	fe e0       	ldi	r31, 0x0E	; 14
     e6a:	31 97       	sbiw	r30, 0x01	; 1
     e6c:	f1 f7       	brne	.-4      	; 0xe6a <main+0x42>
     e6e:	00 00       	nop
}

static inline void LCD_Delay(uint8_t ms)
{
    while (ms--) _delay_ms(1);
     e70:	89 2f       	mov	r24, r25
     e72:	9f ef       	ldi	r25, 0xFF	; 255
     e74:	98 0f       	add	r25, r24
     e76:	81 11       	cpse	r24, r1
     e78:	f6 cf       	rjmp	.-20     	; 0xe66 <main+0x3e>
    LCD_CTRL &= ~(1 << LCD_EN);   // E low
}

static inline void LCD_Comm(uint8_t command)
{
    LCD_CTRL &= ~(1 << LCD_RS);   // RS=0 -> command
     e7a:	e5 e6       	ldi	r30, 0x65	; 101
     e7c:	f0 e0       	ldi	r31, 0x00	; 0
     e7e:	80 81       	ld	r24, Z
     e80:	8b 7f       	andi	r24, 0xFB	; 251
     e82:	80 83       	st	Z, r24
    LCD_CTRL &= ~(1 << LCD_RW);   // RW=0 -> write
     e84:	80 81       	ld	r24, Z
     e86:	8d 7f       	andi	r24, 0xFD	; 253
     e88:	80 83       	st	Z, r24
    LCD_CTRL |= (1 << LCD_EN);    // E high
     e8a:	80 81       	ld	r24, Z
     e8c:	81 60       	ori	r24, 0x01	; 1
     e8e:	80 83       	st	Z, r24
	#else
		//round up by default
		__ticks_dc = (uint32_t)(ceil(fabs(__tmp)));
	#endif

	__builtin_avr_delay_cycles(__ticks_dc);
     e90:	36 ef       	ldi	r19, 0xF6	; 246
     e92:	3a 95       	dec	r19
     e94:	f1 f7       	brne	.-4      	; 0xe92 <main+0x6a>
    _delay_us(50);
    LCD_WINST = command;          // put command
     e96:	88 e3       	ldi	r24, 0x38	; 56
     e98:	8b bb       	out	0x1b, r24	; 27
     e9a:	46 ef       	ldi	r20, 0xF6	; 246
     e9c:	4a 95       	dec	r20
     e9e:	f1 f7       	brne	.-4      	; 0xe9c <main+0x74>
    _delay_us(50);
    LCD_CTRL &= ~(1 << LCD_EN);   // E low
     ea0:	80 81       	ld	r24, Z
     ea2:	8e 7f       	andi	r24, 0xFE	; 254
     ea4:	80 83       	st	Z, r24
     ea6:	84 e0       	ldi	r24, 0x04	; 4
     ea8:	06 c0       	rjmp	.+12     	; 0xeb6 <main+0x8e>
	#else
		//round up by default
		__ticks_dc = (uint32_t)(ceil(fabs(__tmp)));
	#endif

	__builtin_avr_delay_cycles(__ticks_dc);
     eaa:	e6 e6       	ldi	r30, 0x66	; 102
     eac:	fe e0       	ldi	r31, 0x0E	; 14
     eae:	31 97       	sbiw	r30, 0x01	; 1
     eb0:	f1 f7       	brne	.-4      	; 0xeae <main+0x86>
     eb2:	00 00       	nop
}

static inline void LCD_Delay(uint8_t ms)
{
    while (ms--) _delay_ms(1);
     eb4:	89 2f       	mov	r24, r25
     eb6:	9f ef       	ldi	r25, 0xFF	; 255
     eb8:	98 0f       	add	r25, r24
     eba:	81 11       	cpse	r24, r1
     ebc:	f6 cf       	rjmp	.-20     	; 0xeaa <main+0x82>
    LCD_CTRL &= ~(1 << LCD_EN);   // E low
}

static inline void LCD_Comm(uint8_t command)
{
    LCD_CTRL &= ~(1 << LCD_RS);   // RS=0 -> command
     ebe:	e5 e6       	ldi	r30, 0x65	; 101
     ec0:	f0 e0       	ldi	r31, 0x00	; 0
     ec2:	80 81       	ld	r24, Z
     ec4:	8b 7f       	andi	r24, 0xFB	; 251
     ec6:	80 83       	st	Z, r24
    LCD_CTRL &= ~(1 << LCD_RW);   // RW=0 -> write
     ec8:	80 81       	ld	r24, Z
     eca:	8d 7f       	andi	r24, 0xFD	; 253
     ecc:	80 83       	st	Z, r24
    LCD_CTRL |= (1 << LCD_EN);    // E high
     ece:	80 81       	ld	r24, Z
     ed0:	81 60       	ori	r24, 0x01	; 1
     ed2:	80 83       	st	Z, r24
	#else
		//round up by default
		__ticks_dc = (uint32_t)(ceil(fabs(__tmp)));
	#endif

	__builtin_avr_delay_cycles(__ticks_dc);
     ed4:	36 ef       	ldi	r19, 0xF6	; 246
     ed6:	3a 95       	dec	r19
     ed8:	f1 f7       	brne	.-4      	; 0xed6 <main+0xae>
    _delay_us(50);
    LCD_WINST = command;          // put command
     eda:	88 e3       	ldi	r24, 0x38	; 56
     edc:	8b bb       	out	0x1b, r24	; 27
     ede:	46 ef       	ldi	r20, 0xF6	; 246
     ee0:	4a 95       	dec	r20
     ee2:	f1 f7       	brne	.-4      	; 0xee0 <main+0xb8>
    _delay_us(50);
    LCD_CTRL &= ~(1 << LCD_EN);   // E low
     ee4:	80 81       	ld	r24, Z
     ee6:	8e 7f       	andi	r24, 0xFE	; 254
     ee8:	80 83       	st	Z, r24
     eea:	84 e0       	ldi	r24, 0x04	; 4
     eec:	06 c0       	rjmp	.+12     	; 0xefa <main+0xd2>
	#else
		//round up by default
		__ticks_dc = (uint32_t)(ceil(fabs(__tmp)));
	#endif

	__builtin_avr_delay_cycles(__ticks_dc);
     eee:	e6 e6       	ldi	r30, 0x66	; 102
     ef0:	fe e0       	ldi	r31, 0x0E	; 14
     ef2:	31 97       	sbiw	r30, 0x01	; 1
     ef4:	f1 f7       	brne	.-4      	; 0xef2 <main+0xca>
     ef6:	00 00       	nop
}

static inline void LCD_Delay(uint8_t ms)
{
    while (ms--) _delay_ms(1);
     ef8:	89 2f       	mov	r24, r25
     efa:	9f ef       	ldi	r25, 0xFF	; 255
     efc:	98 0f       	add	r25, r24
     efe:	81 11       	cpse	r24, r1
     f00:	f6 cf       	rjmp	.-20     	; 0xeee <main+0xc6>
    LCD_CTRL &= ~(1 << LCD_EN);   // E low
}

static inline void LCD_Comm(uint8_t command)
{
    LCD_CTRL &= ~(1 << LCD_RS);   // RS=0 -> command
     f02:	e5 e6       	ldi	r30, 0x65	; 101
     f04:	f0 e0       	ldi	r31, 0x00	; 0
     f06:	80 81       	ld	r24, Z
     f08:	8b 7f       	andi	r24, 0xFB	; 251
     f0a:	80 83       	st	Z, r24
    LCD_CTRL &= ~(1 << LCD_RW);   // RW=0 -> write
     f0c:	80 81       	ld	r24, Z
     f0e:	8d 7f       	andi	r24, 0xFD	; 253
     f10:	80 83       	st	Z, r24
    LCD_CTRL |= (1 << LCD_EN);    // E high
     f12:	80 81       	ld	r24, Z
     f14:	81 60       	ori	r24, 0x01	; 1
     f16:	80 83       	st	Z, r24
	#else
		//round up by default
		__ticks_dc = (uint32_t)(ceil(fabs(__tmp)));
	#endif

	__builtin_avr_delay_cycles(__ticks_dc);
     f18:	36 ef       	ldi	r19, 0xF6	; 246
     f1a:	3a 95       	dec	r19
     f1c:	f1 f7       	brne	.-4      	; 0xf1a <main+0xf2>
    _delay_us(50);
    LCD_WINST = command;          // put command
     f1e:	8e e0       	ldi	r24, 0x0E	; 14
     f20:	8b bb       	out	0x1b, r24	; 27
     f22:	46 ef       	ldi	r20, 0xF6	; 246
     f24:	4a 95       	dec	r20
     f26:	f1 f7       	brne	.-4      	; 0xf24 <main+0xfc>
    _delay_us(50);
    LCD_CTRL &= ~(1 << LCD_EN);   // E low
     f28:	80 81       	ld	r24, Z
     f2a:	8e 7f       	andi	r24, 0xFE	; 254
     f2c:	80 83       	st	Z, r24
     f2e:	82 e0       	ldi	r24, 0x02	; 2
     f30:	06 c0       	rjmp	.+12     	; 0xf3e <main+0x116>
	#else
		//round up by default
		__ticks_dc = (uint32_t)(ceil(fabs(__tmp)));
	#endif

	__builtin_avr_delay_cycles(__ticks_dc);
     f32:	e6 e6       	ldi	r30, 0x66	; 102
     f34:	fe e0       	ldi	r31, 0x0E	; 14
     f36:	31 97       	sbiw	r30, 0x01	; 1
     f38:	f1 f7       	brne	.-4      	; 0xf36 <main+0x10e>
     f3a:	00 00       	nop
}

static inline void LCD_Delay(uint8_t ms)
{
    while (ms--) _delay_ms(1);
     f3c:	89 2f       	mov	r24, r25
     f3e:	9f ef       	ldi	r25, 0xFF	; 255
     f40:	98 0f       	add	r25, r24
     f42:	81 11       	cpse	r24, r1
     f44:	f6 cf       	rjmp	.-20     	; 0xf32 <main+0x10a>
    LCD_CTRL &= ~(1 << LCD_EN);   // E low
}

static inline void LCD_Comm(uint8_t command)
{
    LCD_CTRL &= ~(1 << LCD_RS);   // RS=0 -> command
     f46:	e5 e6       	ldi	r30, 0x65	; 101
     f48:	f0 e0       	ldi	r31, 0x00	; 0
     f4a:	80 81       	ld	r24, Z
     f4c:	8b 7f       	andi	r24, 0xFB	; 251
     f4e:	80 83       	st	Z, r24
    LCD_CTRL &= ~(1 << LCD_RW);   // RW=0 -> write
     f50:	80 81       	ld	r24, Z
     f52:	8d 7f       	andi	r24, 0xFD	; 253
     f54:	80 83       	st	Z, r24
    LCD_CTRL |= (1 << LCD_EN);    // E high
     f56:	80 81       	ld	r24, Z
     f58:	81 60       	ori	r24, 0x01	; 1
     f5a:	80 83       	st	Z, r24
	#else
		//round up by default
		__ticks_dc = (uint32_t)(ceil(fabs(__tmp)));
	#endif

	__builtin_avr_delay_cycles(__ticks_dc);
     f5c:	36 ef       	ldi	r19, 0xF6	; 246
     f5e:	3a 95       	dec	r19
     f60:	f1 f7       	brne	.-4      	; 0xf5e <main+0x136>
    _delay_us(50);
    LCD_WINST = command;          // put command
     f62:	86 e0       	ldi	r24, 0x06	; 6
     f64:	8b bb       	out	0x1b, r24	; 27
     f66:	46 ef       	ldi	r20, 0xF6	; 246
     f68:	4a 95       	dec	r20
     f6a:	f1 f7       	brne	.-4      	; 0xf68 <main+0x140>
    _delay_us(50);
    LCD_CTRL &= ~(1 << LCD_EN);   // E low
     f6c:	80 81       	ld	r24, Z
     f6e:	8e 7f       	andi	r24, 0xFE	; 254
     f70:	80 83       	st	Z, r24
     f72:	82 e0       	ldi	r24, 0x02	; 2
     f74:	06 c0       	rjmp	.+12     	; 0xf82 <main+0x15a>
	#else
		//round up by default
		__ticks_dc = (uint32_t)(ceil(fabs(__tmp)));
	#endif

	__builtin_avr_delay_cycles(__ticks_dc);
     f76:	e6 e6       	ldi	r30, 0x66	; 102
     f78:	fe e0       	ldi	r31, 0x0E	; 14
     f7a:	31 97       	sbiw	r30, 0x01	; 1
     f7c:	f1 f7       	brne	.-4      	; 0xf7a <main+0x152>
     f7e:	00 00       	nop
}

static inline void LCD_Delay(uint8_t ms)
{
    while (ms--) _delay_ms(1);
     f80:	89 2f       	mov	r24, r25
     f82:	9f ef       	ldi	r25, 0xFF	; 255
     f84:	98 0f       	add	r25, r24
     f86:	81 11       	cpse	r24, r1
     f88:	f6 cf       	rjmp	.-20     	; 0xf76 <main+0x14e>
    LCD_CTRL &= ~(1 << LCD_EN);   // E low
}

static inline void LCD_Comm(uint8_t command)
{
    LCD_CTRL &= ~(1 << LCD_RS);   // RS=0 -> command
     f8a:	e5 e6       	ldi	r30, 0x65	; 101
     f8c:	f0 e0       	ldi	r31, 0x00	; 0
     f8e:	80 81       	ld	r24, Z
     f90:	8b 7f       	andi	r24, 0xFB	; 251
     f92:	80 83       	st	Z, r24
    LCD_CTRL &= ~(1 << LCD_RW);   // RW=0 -> write
     f94:	80 81       	ld	r24, Z
     f96:	8d 7f       	andi	r24, 0xFD	; 253
     f98:	80 83       	st	Z, r24
    LCD_CTRL |= (1 << LCD_EN);    // E high
     f9a:	80 81       	ld	r24, Z
     f9c:	81 60       	ori	r24, 0x01	; 1
     f9e:	80 83       	st	Z, r24
	#else
		//round up by default
		__ticks_dc = (uint32_t)(ceil(fabs(__tmp)));
	#endif

	__builtin_avr_delay_cycles(__ticks_dc);
     fa0:	36 ef       	ldi	r19, 0xF6	; 246
     fa2:	3a 95       	dec	r19
     fa4:	f1 f7       	brne	.-4      	; 0xfa2 <main+0x17a>
    _delay_us(50);
    LCD_WINST = command;          // put command
     fa6:	81 e0       	ldi	r24, 0x01	; 1
     fa8:	8b bb       	out	0x1b, r24	; 27
     faa:	46 ef       	ldi	r20, 0xF6	; 246
     fac:	4a 95       	dec	r20
     fae:	f1 f7       	brne	.-4      	; 0xfac <main+0x184>
    _delay_us(50);
    LCD_CTRL &= ~(1 << LCD_EN);   // E low
     fb0:	80 81       	ld	r24, Z
     fb2:	8e 7f       	andi	r24, 0xFE	; 254
     fb4:	80 83       	st	Z, r24
     fb6:	82 e0       	ldi	r24, 0x02	; 2
     fb8:	06 c0       	rjmp	.+12     	; 0xfc6 <main+0x19e>
	#else
		//round up by default
		__ticks_dc = (uint32_t)(ceil(fabs(__tmp)));
	#endif

	__builtin_avr_delay_cycles(__ticks_dc);
     fba:	e6 e6       	ldi	r30, 0x66	; 102
     fbc:	fe e0       	ldi	r31, 0x0E	; 14
     fbe:	31 97       	sbiw	r30, 0x01	; 1
     fc0:	f1 f7       	brne	.-4      	; 0xfbe <main+0x196>
     fc2:	00 00       	nop
}

static inline void LCD_Delay(uint8_t ms)
{
    while (ms--) _delay_ms(1);
     fc4:	89 2f       	mov	r24, r25
     fc6:	9f ef       	ldi	r25, 0xFF	; 255
     fc8:	98 0f       	add	r25, r24
     fca:	81 11       	cpse	r24, r1
     fcc:	f6 cf       	rjmp	.-20     	; 0xfba <main+0x192>

int main(void){
	// LCD init
	LCD_Init();
	// welcome message
	DISPLAY_WELCOME_MESSAGE();
     fce:	84 d8       	rcall	.-3832   	; 0xd8 <DISPLAY_WELCOME_MESSAGE>

// ---- Init helpers (preserve original register values) ----
static inline void Init_TWI(void)
{
    // SCL ~100kHz @ F_CPU=14.7456MHz, prescaler=1
    TWSR = 0x00;
     fd0:	10 92 71 00 	sts	0x0071, r1	; 0x800071 <__TEXT_REGION_LENGTH__+0x7e0071>
    TWBR = 0x32;
     fd4:	82 e3       	ldi	r24, 0x32	; 50
     fd6:	80 93 70 00 	sts	0x0070, r24	; 0x800070 <__TEXT_REGION_LENGTH__+0x7e0070>
    TWCR = (1<<TWEN);		//TWI Enable
     fda:	84 e0       	ldi	r24, 0x04	; 4
     fdc:	80 93 74 00 	sts	0x0074, r24	; 0x800074 <__TEXT_REGION_LENGTH__+0x7e0074>
	// TWI initialize
	Init_TWI();        // uses fixed TWBR/TWSR preset from header
	// PC0..PC3 as input with pull-ups
	PORTC_Init();
     fe0:	74 d8       	rcall	.-3864   	; 0xca <PORTC_Init>
static inline void puts_USART1(char *str);
static inline char getch_USART1(void);

static inline void Init_USART1(uint8_t baud)
{
    UCSR1A = 0x00;                         // normal speed
     fe2:	10 92 9b 00 	sts	0x009B, r1	; 0x80009b <__TEXT_REGION_LENGTH__+0x7e009b>
    UCSR1B = _BV(RXEN1) | _BV(TXEN1);      // enable RX, TX
     fe6:	88 e1       	ldi	r24, 0x18	; 24
     fe8:	80 93 9a 00 	sts	0x009A, r24	; 0x80009a <__TEXT_REGION_LENGTH__+0x7e009a>
    UCSR1C = _BV(UCSZ11) | _BV(UCSZ10);    // 8N1
     fec:	86 e0       	ldi	r24, 0x06	; 6
     fee:	80 93 9d 00 	sts	0x009D, r24	; 0x80009d <__TEXT_REGION_LENGTH__+0x7e009d>

    switch (baud) {
        case 0: // 9600 @ 14.7456 MHz
            UBRR1H = 0x00;
     ff2:	10 92 98 00 	sts	0x0098, r1	; 0x800098 <__TEXT_REGION_LENGTH__+0x7e0098>
            UBRR1L = 95;
     ff6:	8f e5       	ldi	r24, 0x5F	; 95
     ff8:	80 93 99 00 	sts	0x0099, r24	; 0x800099 <__TEXT_REGION_LENGTH__+0x7e0099>
	// USART init
	Init_USART1(0);
	// Initialize Timer
	Timer1_Init();
     ffc:	0c d9       	rcall	.-3560   	; 0x216 <Timer1_Init>
	// Timer2_Init();
	Timer3_Init();
     ffe:	4b d9       	rcall	.-3434   	; 0x296 <Timer3_Init>
    1000:	78 94       	sei
	int8_t program_status = STATUS_IDLE;
	int8_t previous_program_status = STATUS_IDLE;
	// int8_t previous_program_status = STATUS_IDLE;

	// global interrupt enable
	sei();
    1002:	df ef       	ldi	r29, 0xFF	; 255
	Timer1_Init();
	// Timer2_Init();
	Timer3_Init();

	int8_t program_status = STATUS_IDLE;
	int8_t previous_program_status = STATUS_IDLE;
    1004:	cf ef       	ldi	r28, 0xFF	; 255
	// Initialize Timer
	Timer1_Init();
	// Timer2_Init();
	Timer3_Init();

	int8_t program_status = STATUS_IDLE;
    1006:	80 91 35 01 	lds	r24, 0x0135	; 0x800135 <global_newly_pressed_key>
	sei();

	while(1)
	{
		// Check if the ISR has detected a new key press
		if (global_newly_pressed_key != NOT_PRESSED_ANY_KEY)
    100a:	8f 3f       	cpi	r24, 0xFF	; 255
    100c:	09 f4       	brne	.+2      	; 0x1010 <__DATA_REGION_LENGTH__+0x10>
    100e:	3d c3       	rjmp	.+1658   	; 0x168a <__stack+0x58b>
    1010:	80 91 35 01 	lds	r24, 0x0135	; 0x800135 <global_newly_pressed_key>
		{
			// sprintf((char*)global_usart_send_msg_buffer, "%d %d\r\n", program_status, previous_program_status);
			// puts_USART1((char*)global_usart_send_msg_buffer); // send current seconds to USART1

			int8_t key_to_process = global_newly_pressed_key;
    1014:	9f ef       	ldi	r25, 0xFF	; 255
			// Reset the global key variable so we don't process the same key again
			global_newly_pressed_key = NOT_PRESSED_ANY_KEY;
    1016:	90 93 35 01 	sts	0x0135, r25	; 0x800135 <global_newly_pressed_key>
    101a:	81 30       	cpi	r24, 0x01	; 1

			switch (key_to_process)
    101c:	09 f4       	brne	.+2      	; 0x1020 <__DATA_REGION_LENGTH__+0x20>
    101e:	cc c0       	rjmp	.+408    	; 0x11b8 <__stack+0xb9>
    1020:	1c f4       	brge	.+6      	; 0x1028 <__DATA_REGION_LENGTH__+0x28>
    1022:	88 23       	and	r24, r24
    1024:	41 f0       	breq	.+16     	; 0x1036 <__DATA_REGION_LENGTH__+0x36>
    1026:	07 c3       	rjmp	.+1550   	; 0x1636 <__stack+0x537>
    1028:	82 30       	cpi	r24, 0x02	; 2
    102a:	09 f4       	brne	.+2      	; 0x102e <__DATA_REGION_LENGTH__+0x2e>
    102c:	86 c1       	rjmp	.+780    	; 0x133a <__stack+0x23b>
    102e:	83 30       	cpi	r24, 0x03	; 3
    1030:	09 f4       	brne	.+2      	; 0x1034 <__DATA_REGION_LENGTH__+0x34>
    1032:	44 c2       	rjmp	.+1160   	; 0x14bc <__stack+0x3bd>
    1034:	00 c3       	rjmp	.+1536   	; 0x1636 <__stack+0x537>
    1036:	c1 11       	cpse	r28, r1
			{
				case PC_BTN_0:
				// TODO: Add function for key 1
				// previous_program_status = program_status;
				if(program_status == STATUS_SEND_A) previous_program_status = STATUS_IDLE; // sensing the re-entry
    1038:	01 c0       	rjmp	.+2      	; 0x103c <__DATA_REGION_LENGTH__+0x3c>
    103a:	df ef       	ldi	r29, 0xFF	; 255
    103c:	e5 e6       	ldi	r30, 0x65	; 101
    LCD_CTRL &= ~(1 << LCD_EN);   // E low
}

static inline void LCD_Comm(uint8_t command)
{
    LCD_CTRL &= ~(1 << LCD_RS);   // RS=0 -> command
    103e:	f0 e0       	ldi	r31, 0x00	; 0
    1040:	80 81       	ld	r24, Z
    1042:	8b 7f       	andi	r24, 0xFB	; 251
    1044:	80 83       	st	Z, r24
    1046:	80 81       	ld	r24, Z
    LCD_CTRL &= ~(1 << LCD_RW);   // RW=0 -> write
    1048:	8d 7f       	andi	r24, 0xFD	; 253
    104a:	80 83       	st	Z, r24
    104c:	80 81       	ld	r24, Z
    LCD_CTRL |= (1 << LCD_EN);    // E high
    104e:	81 60       	ori	r24, 0x01	; 1
    1050:	80 83       	st	Z, r24
    1052:	36 ef       	ldi	r19, 0xF6	; 246
	#else
		//round up by default
		__ticks_dc = (uint32_t)(ceil(fabs(__tmp)));
	#endif

	__builtin_avr_delay_cycles(__ticks_dc);
    1054:	3a 95       	dec	r19
    1056:	f1 f7       	brne	.-4      	; 0x1054 <__DATA_REGION_LENGTH__+0x54>
    1058:	81 e0       	ldi	r24, 0x01	; 1
    _delay_us(50);
    LCD_WINST = command;          // put command
    105a:	8b bb       	out	0x1b, r24	; 27
    105c:	46 ef       	ldi	r20, 0xF6	; 246
    105e:	4a 95       	dec	r20
    1060:	f1 f7       	brne	.-4      	; 0x105e <__DATA_REGION_LENGTH__+0x5e>
    1062:	80 81       	ld	r24, Z
    _delay_us(50);
    LCD_CTRL &= ~(1 << LCD_EN);   // E low
    1064:	8e 7f       	andi	r24, 0xFE	; 254
    1066:	80 83       	st	Z, r24
    1068:	82 e0       	ldi	r24, 0x02	; 2
    106a:	06 c0       	rjmp	.+12     	; 0x1078 <__DATA_REGION_LENGTH__+0x78>
    106c:	e6 e6       	ldi	r30, 0x66	; 102
	#else
		//round up by default
		__ticks_dc = (uint32_t)(ceil(fabs(__tmp)));
	#endif

	__builtin_avr_delay_cycles(__ticks_dc);
    106e:	fe e0       	ldi	r31, 0x0E	; 14
    1070:	31 97       	sbiw	r30, 0x01	; 1
    1072:	f1 f7       	brne	.-4      	; 0x1070 <__DATA_REGION_LENGTH__+0x70>
    1074:	00 00       	nop
    1076:	89 2f       	mov	r24, r25
}

static inline void LCD_Delay(uint8_t ms)
{
    while (ms--) _delay_ms(1);
    1078:	9f ef       	ldi	r25, 0xFF	; 255
    107a:	98 0f       	add	r25, r24
    107c:	81 11       	cpse	r24, r1
    107e:	f6 cf       	rjmp	.-20     	; 0x106c <__DATA_REGION_LENGTH__+0x6c>
    1080:	e5 e6       	ldi	r30, 0x65	; 101
    LCD_CTRL &= ~(1 << LCD_EN);   // E low
}

static inline void LCD_Comm(uint8_t command)
{
    LCD_CTRL &= ~(1 << LCD_RS);   // RS=0 -> command
    1082:	f0 e0       	ldi	r31, 0x00	; 0
    1084:	80 81       	ld	r24, Z
    1086:	8b 7f       	andi	r24, 0xFB	; 251
    1088:	80 83       	st	Z, r24
    108a:	80 81       	ld	r24, Z
    LCD_CTRL &= ~(1 << LCD_RW);   // RW=0 -> write
    108c:	8d 7f       	andi	r24, 0xFD	; 253
    108e:	80 83       	st	Z, r24
    1090:	80 81       	ld	r24, Z
    LCD_CTRL |= (1 << LCD_EN);    // E high
    1092:	81 60       	ori	r24, 0x01	; 1
    1094:	80 83       	st	Z, r24
    1096:	36 ef       	ldi	r19, 0xF6	; 246
	#else
		//round up by default
		__ticks_dc = (uint32_t)(ceil(fabs(__tmp)));
	#endif

	__builtin_avr_delay_cycles(__ticks_dc);
    1098:	3a 95       	dec	r19
    109a:	f1 f7       	brne	.-4      	; 0x1098 <__DATA_REGION_LENGTH__+0x98>
    109c:	80 e8       	ldi	r24, 0x80	; 128
    _delay_us(50);
    LCD_WINST = command;          // put command
    109e:	8b bb       	out	0x1b, r24	; 27
    10a0:	46 ef       	ldi	r20, 0xF6	; 246
    10a2:	4a 95       	dec	r20
    10a4:	f1 f7       	brne	.-4      	; 0x10a2 <__DATA_REGION_LENGTH__+0xa2>
    10a6:	80 81       	ld	r24, Z
    _delay_us(50);
    LCD_CTRL &= ~(1 << LCD_EN);   // E low
    10a8:	8e 7f       	andi	r24, 0xFE	; 254
    10aa:	80 83       	st	Z, r24
    10ac:	a4 e7       	ldi	r26, 0x74	; 116
    10ae:	b1 e0       	ldi	r27, 0x01	; 1
    10b0:	22 c0       	rjmp	.+68     	; 0x10f6 <__DATA_REGION_LENGTH__+0xf6>
    10b2:	11 96       	adiw	r26, 0x01	; 1
}

static inline void LCD_Str(const char *str)
{
    while (*str != 0) {
        LCD_Char((uint8_t)*str++);
    10b4:	81 e0       	ldi	r24, 0x01	; 1
    10b6:	06 c0       	rjmp	.+12     	; 0x10c4 <__DATA_REGION_LENGTH__+0xc4>
    10b8:	e6 e6       	ldi	r30, 0x66	; 102
	#else
		//round up by default
		__ticks_dc = (uint32_t)(ceil(fabs(__tmp)));
	#endif

	__builtin_avr_delay_cycles(__ticks_dc);
    10ba:	fe e0       	ldi	r31, 0x0E	; 14
    10bc:	31 97       	sbiw	r30, 0x01	; 1
    10be:	f1 f7       	brne	.-4      	; 0x10bc <__DATA_REGION_LENGTH__+0xbc>
    10c0:	00 00       	nop
    10c2:	82 2f       	mov	r24, r18
    LCD_CTRL &= ~(1 << LCD_EN);   // E low
}

static inline void LCD_Delay(uint8_t ms)
{
    while (ms--) _delay_ms(1);
    10c4:	2f ef       	ldi	r18, 0xFF	; 255
    10c6:	28 0f       	add	r18, r24
    10c8:	81 11       	cpse	r24, r1
    10ca:	f6 cf       	rjmp	.-20     	; 0x10b8 <__DATA_REGION_LENGTH__+0xb8>
    10cc:	e5 e6       	ldi	r30, 0x65	; 101
static inline void LCD_Cursor_Shift(uint8_t p);
static inline void LCD_Cursor_Home(void);

static inline void LCD_Data(uint8_t ch)
{
    LCD_CTRL |= (1 << LCD_RS);    // RS=1 -> data
    10ce:	f0 e0       	ldi	r31, 0x00	; 0
    10d0:	80 81       	ld	r24, Z
    10d2:	84 60       	ori	r24, 0x04	; 4
    10d4:	80 83       	st	Z, r24
    10d6:	80 81       	ld	r24, Z
    LCD_CTRL &= ~(1 << LCD_RW);   // RW=0 -> write
    10d8:	8d 7f       	andi	r24, 0xFD	; 253
    10da:	80 83       	st	Z, r24
    10dc:	80 81       	ld	r24, Z
    LCD_CTRL |= (1 << LCD_EN);    // E high
    10de:	81 60       	ori	r24, 0x01	; 1
    10e0:	80 83       	st	Z, r24
    10e2:	36 ef       	ldi	r19, 0xF6	; 246
	#else
		//round up by default
		__ticks_dc = (uint32_t)(ceil(fabs(__tmp)));
	#endif

	__builtin_avr_delay_cycles(__ticks_dc);
    10e4:	3a 95       	dec	r19
    10e6:	f1 f7       	brne	.-4      	; 0x10e4 <__DATA_REGION_LENGTH__+0xe4>
    10e8:	9b bb       	out	0x1b, r25	; 27
    _delay_us(50);
    LCD_WDATA = ch;               // put data
    10ea:	46 ef       	ldi	r20, 0xF6	; 246
    10ec:	4a 95       	dec	r20
    10ee:	f1 f7       	brne	.-4      	; 0x10ec <__DATA_REGION_LENGTH__+0xec>
    10f0:	80 81       	ld	r24, Z
    _delay_us(50);
    LCD_CTRL &= ~(1 << LCD_EN);   // E low
    10f2:	8e 7f       	andi	r24, 0xFE	; 254
    10f4:	80 83       	st	Z, r24
    10f6:	9c 91       	ld	r25, X
    LCD_Data(ch);
}

static inline void LCD_Str(const char *str)
{
    while (*str != 0) {
    10f8:	91 11       	cpse	r25, r1
    10fa:	db cf       	rjmp	.-74     	; 0x10b2 <__DATA_REGION_LENGTH__+0xb2>
    10fc:	84 ea       	ldi	r24, 0xA4	; 164
}

// START
static inline uint8_t TWI_Start(void)
{
    TWCR = (1<<TWINT) | (1<<TWSTA) | (1<<TWEN);	// START Ω≈»£ ∫∏≥ª±‚
    10fe:	80 93 74 00 	sts	0x0074, r24	; 0x800074 <__TEXT_REGION_LENGTH__+0x7e0074>
    1102:	80 e0       	ldi	r24, 0x00	; 0
// Ω≈»£ ¿¸º€ øœ∑· ∞ÀªÁ π◊ Status »Æ¿Œ + Timeout Check 
// Error code: 0=no error, 1=timeout, 2=status mismatch

static inline uint8_t TWI_TransCheck_ACK(uint8_t Stat)
{
    uint16_t cnt = 0;
    1104:	90 e0       	ldi	r25, 0x00	; 0
    1106:	07 c0       	rjmp	.+14     	; 0x1116 <__stack+0x17>
    1108:	9c 01       	movw	r18, r24
    while (!(TWCR & (1<<TWINT)))				// ∆–≈∂ ¿¸º€ øœ∑·µ… ∂ß ±Ó¡ˆ wait
	{				
        if (cnt++ > ExtDev_ERR_MAX_CNT) return 1; // timeout
    110a:	2f 5f       	subi	r18, 0xFF	; 255
    110c:	3f 4f       	sbci	r19, 0xFF	; 255
    110e:	81 3d       	cpi	r24, 0xD1	; 209
    1110:	97 40       	sbci	r25, 0x07	; 7
    1112:	60 f4       	brcc	.+24     	; 0x112c <__stack+0x2d>
    1114:	c9 01       	movw	r24, r18
    1116:	20 91 74 00 	lds	r18, 0x0074	; 0x800074 <__TEXT_REGION_LENGTH__+0x7e0074>
// Error code: 0=no error, 1=timeout, 2=status mismatch

static inline uint8_t TWI_TransCheck_ACK(uint8_t Stat)
{
    uint16_t cnt = 0;
    while (!(TWCR & (1<<TWINT)))				// ∆–≈∂ ¿¸º€ øœ∑·µ… ∂ß ±Ó¡ˆ wait
    111a:	22 23       	and	r18, r18
    111c:	ac f7       	brge	.-22     	; 0x1108 <__stack+0x9>
    111e:	80 91 71 00 	lds	r24, 0x0071	; 0x800071 <__TEXT_REGION_LENGTH__+0x7e0071>
	{				
        if (cnt++ > ExtDev_ERR_MAX_CNT) return 1; // timeout
    }
    if ((TWSR & 0xF8) != Stat) return 2;         // status mismatch, ¿¸º€ ∞ÀªÁ error(2 π›»Ø)
    1122:	88 7f       	andi	r24, 0xF8	; 248
    1124:	88 30       	cpi	r24, 0x08	; 8
    1126:	21 f0       	breq	.+8      	; 0x1130 <__stack+0x31>
    1128:	22 e0       	ldi	r18, 0x02	; 2
    112a:	03 c0       	rjmp	.+6      	; 0x1132 <__stack+0x33>
    112c:	21 e0       	ldi	r18, 0x01	; 1
static inline uint8_t TWI_TransCheck_ACK(uint8_t Stat)
{
    uint16_t cnt = 0;
    while (!(TWCR & (1<<TWINT)))				// ∆–≈∂ ¿¸º€ øœ∑·µ… ∂ß ±Ó¡ˆ wait
	{				
        if (cnt++ > ExtDev_ERR_MAX_CNT) return 1; // timeout
    112e:	01 c0       	rjmp	.+2      	; 0x1132 <__stack+0x33>
    1130:	20 e0       	ldi	r18, 0x00	; 0
    }
    if ((TWSR & 0xF8) != Stat) return 2;         // status mismatch, ¿¸º€ ∞ÀªÁ error(2 π›»Ø)
    return 0;
    1132:	21 11       	cpse	r18, r1

// Master transmit one byte
static inline uint8_t TWI_Master_Transmit(uint8_t Data, uint8_t Addr)
{
    uint8_t ret = TWI_Start();
    if (ret) return ret;
    1134:	3f c0       	rjmp	.+126    	; 0x11b4 <__stack+0xb5>
    1136:	88 e0       	ldi	r24, 0x08	; 8
}

// SLA+W
static inline uint8_t TWI_Write_SLAW(uint8_t Addr)
{
    TWDR = Addr;							// 8-bit slave address (W bit assumed in Addr)
    1138:	80 93 73 00 	sts	0x0073, r24	; 0x800073 <__TEXT_REGION_LENGTH__+0x7e0073>
    113c:	84 e8       	ldi	r24, 0x84	; 132
    TWCR = (1<<TWINT) | (1<<TWEN);			// SLA + W ∆–≈∂ ∫∏≥ª±‚  
    113e:	80 93 74 00 	sts	0x0074, r24	; 0x800074 <__TEXT_REGION_LENGTH__+0x7e0074>
    1142:	80 e0       	ldi	r24, 0x00	; 0
// Ω≈»£ ¿¸º€ øœ∑· ∞ÀªÁ π◊ Status »Æ¿Œ + Timeout Check 
// Error code: 0=no error, 1=timeout, 2=status mismatch

static inline uint8_t TWI_TransCheck_ACK(uint8_t Stat)
{
    uint16_t cnt = 0;
    1144:	90 e0       	ldi	r25, 0x00	; 0
    1146:	07 c0       	rjmp	.+14     	; 0x1156 <__stack+0x57>
    1148:	ac 01       	movw	r20, r24
    while (!(TWCR & (1<<TWINT)))				// ∆–≈∂ ¿¸º€ øœ∑·µ… ∂ß ±Ó¡ˆ wait
	{				
        if (cnt++ > ExtDev_ERR_MAX_CNT) return 1; // timeout
    114a:	4f 5f       	subi	r20, 0xFF	; 255
    114c:	5f 4f       	sbci	r21, 0xFF	; 255
    114e:	81 3d       	cpi	r24, 0xD1	; 209
    1150:	97 40       	sbci	r25, 0x07	; 7
    1152:	60 f4       	brcc	.+24     	; 0x116c <__stack+0x6d>
    1154:	ca 01       	movw	r24, r20
    1156:	30 91 74 00 	lds	r19, 0x0074	; 0x800074 <__TEXT_REGION_LENGTH__+0x7e0074>
// Error code: 0=no error, 1=timeout, 2=status mismatch

static inline uint8_t TWI_TransCheck_ACK(uint8_t Stat)
{
    uint16_t cnt = 0;
    while (!(TWCR & (1<<TWINT)))				// ∆–≈∂ ¿¸º€ øœ∑·µ… ∂ß ±Ó¡ˆ wait
    115a:	33 23       	and	r19, r19
    115c:	ac f7       	brge	.-22     	; 0x1148 <__stack+0x49>
    115e:	80 91 71 00 	lds	r24, 0x0071	; 0x800071 <__TEXT_REGION_LENGTH__+0x7e0071>
	{				
        if (cnt++ > ExtDev_ERR_MAX_CNT) return 1; // timeout
    }
    if ((TWSR & 0xF8) != Stat) return 2;         // status mismatch, ¿¸º€ ∞ÀªÁ error(2 π›»Ø)
    1162:	88 7f       	andi	r24, 0xF8	; 248
    1164:	88 31       	cpi	r24, 0x18	; 24
    1166:	19 f0       	breq	.+6      	; 0x116e <__stack+0x6f>
    1168:	22 e0       	ldi	r18, 0x02	; 2
    116a:	01 c0       	rjmp	.+2      	; 0x116e <__stack+0x6f>
    116c:	21 e0       	ldi	r18, 0x01	; 1
static inline uint8_t TWI_TransCheck_ACK(uint8_t Stat)
{
    uint16_t cnt = 0;
    while (!(TWCR & (1<<TWINT)))				// ∆–≈∂ ¿¸º€ øœ∑·µ… ∂ß ±Ó¡ˆ wait
	{				
        if (cnt++ > ExtDev_ERR_MAX_CNT) return 1; // timeout
    116e:	21 11       	cpse	r18, r1
static inline uint8_t TWI_Master_Transmit(uint8_t Data, uint8_t Addr)
{
    uint8_t ret = TWI_Start();
    if (ret) return ret;
    ret = TWI_Write_SLAW(Addr);
    if (ret) return ret;
    1170:	21 c0       	rjmp	.+66     	; 0x11b4 <__stack+0xb5>
    1172:	83 e3       	ldi	r24, 0x33	; 51
}

// DATA (write), µ•¿Ã≈Õ ∆–≈∂ ¿¸º€
static inline uint8_t TWI_Write_Data(uint8_t Data)
{
    TWDR = Data;
    1174:	80 93 73 00 	sts	0x0073, r24	; 0x800073 <__TEXT_REGION_LENGTH__+0x7e0073>
    1178:	84 e8       	ldi	r24, 0x84	; 132
    TWCR = (1<<TWINT) | (1<<TWEN);		   // µ•¿Ã≈Õ ∆–≈∂ º€Ω≈
    117a:	80 93 74 00 	sts	0x0074, r24	; 0x800074 <__TEXT_REGION_LENGTH__+0x7e0074>
    117e:	80 e0       	ldi	r24, 0x00	; 0
// Ω≈»£ ¿¸º€ øœ∑· ∞ÀªÁ π◊ Status »Æ¿Œ + Timeout Check 
// Error code: 0=no error, 1=timeout, 2=status mismatch

static inline uint8_t TWI_TransCheck_ACK(uint8_t Stat)
{
    uint16_t cnt = 0;
    1180:	90 e0       	ldi	r25, 0x00	; 0
    1182:	07 c0       	rjmp	.+14     	; 0x1192 <__stack+0x93>
    1184:	ac 01       	movw	r20, r24
    while (!(TWCR & (1<<TWINT)))				// ∆–≈∂ ¿¸º€ øœ∑·µ… ∂ß ±Ó¡ˆ wait
	{				
        if (cnt++ > ExtDev_ERR_MAX_CNT) return 1; // timeout
    1186:	4f 5f       	subi	r20, 0xFF	; 255
    1188:	5f 4f       	sbci	r21, 0xFF	; 255
    118a:	81 3d       	cpi	r24, 0xD1	; 209
    118c:	97 40       	sbci	r25, 0x07	; 7
    118e:	60 f4       	brcc	.+24     	; 0x11a8 <__stack+0xa9>
    1190:	ca 01       	movw	r24, r20
    1192:	30 91 74 00 	lds	r19, 0x0074	; 0x800074 <__TEXT_REGION_LENGTH__+0x7e0074>
// Error code: 0=no error, 1=timeout, 2=status mismatch

static inline uint8_t TWI_TransCheck_ACK(uint8_t Stat)
{
    uint16_t cnt = 0;
    while (!(TWCR & (1<<TWINT)))				// ∆–≈∂ ¿¸º€ øœ∑·µ… ∂ß ±Ó¡ˆ wait
    1196:	33 23       	and	r19, r19
    1198:	ac f7       	brge	.-22     	; 0x1184 <__stack+0x85>
    119a:	80 91 71 00 	lds	r24, 0x0071	; 0x800071 <__TEXT_REGION_LENGTH__+0x7e0071>
	{				
        if (cnt++ > ExtDev_ERR_MAX_CNT) return 1; // timeout
    }
    if ((TWSR & 0xF8) != Stat) return 2;         // status mismatch, ¿¸º€ ∞ÀªÁ error(2 π›»Ø)
    119e:	88 7f       	andi	r24, 0xF8	; 248
    11a0:	88 32       	cpi	r24, 0x28	; 40
    11a2:	19 f0       	breq	.+6      	; 0x11aa <__stack+0xab>
    11a4:	22 e0       	ldi	r18, 0x02	; 2
    11a6:	01 c0       	rjmp	.+2      	; 0x11aa <__stack+0xab>
    11a8:	21 e0       	ldi	r18, 0x01	; 1
static inline uint8_t TWI_TransCheck_ACK(uint8_t Stat)
{
    uint16_t cnt = 0;
    while (!(TWCR & (1<<TWINT)))				// ∆–≈∂ ¿¸º€ øœ∑·µ… ∂ß ±Ó¡ˆ wait
	{				
        if (cnt++ > ExtDev_ERR_MAX_CNT) return 1; // timeout
    11aa:	21 11       	cpse	r18, r1
    uint8_t ret = TWI_Start();
    if (ret) return ret;
    ret = TWI_Write_SLAW(Addr);
    if (ret) return ret;
    ret = TWI_Write_Data(Data);
    if (ret) return ret;
    11ac:	03 c0       	rjmp	.+6      	; 0x11b4 <__stack+0xb5>
    11ae:	84 e9       	ldi	r24, 0x94	; 148
}

// STOP
static inline void TWI_Stop(void)
{
    TWCR = (1<<TWINT) | (1<<TWSTO) | (1<<TWEN);
    11b0:	80 93 74 00 	sts	0x0074, r24	; 0x800074 <__TEXT_REGION_LENGTH__+0x7e0074>
    11b4:	c0 e0       	ldi	r28, 0x00	; 0
				program_status = STATUS_SEND_A;
    11b6:	3f c2       	rjmp	.+1150   	; 0x1636 <__stack+0x537>
    11b8:	c1 30       	cpi	r28, 0x01	; 1
				TWI_Master_Transmit(SLAVE_LCD_CLEAR_CMD, SLAVE_ADDR); // command to clear slave lcd
				break;
				case PC_BTN_1:
				// TODO: Add function for key 2
				// previous_program_status = program_status;
				if(program_status == STATUS_SEND_A_TO_Z) previous_program_status = STATUS_IDLE; // sensing the re-entry
    11ba:	09 f4       	brne	.+2      	; 0x11be <__stack+0xbf>
    11bc:	df ef       	ldi	r29, 0xFF	; 255
    11be:	e5 e6       	ldi	r30, 0x65	; 101
    LCD_CTRL &= ~(1 << LCD_EN);   // E low
}

static inline void LCD_Comm(uint8_t command)
{
    LCD_CTRL &= ~(1 << LCD_RS);   // RS=0 -> command
    11c0:	f0 e0       	ldi	r31, 0x00	; 0
    11c2:	80 81       	ld	r24, Z
    11c4:	8b 7f       	andi	r24, 0xFB	; 251
    11c6:	80 83       	st	Z, r24
    11c8:	80 81       	ld	r24, Z
    LCD_CTRL &= ~(1 << LCD_RW);   // RW=0 -> write
    11ca:	8d 7f       	andi	r24, 0xFD	; 253
    11cc:	80 83       	st	Z, r24
    11ce:	80 81       	ld	r24, Z
    LCD_CTRL |= (1 << LCD_EN);    // E high
    11d0:	81 60       	ori	r24, 0x01	; 1
    11d2:	80 83       	st	Z, r24
    11d4:	46 ef       	ldi	r20, 0xF6	; 246
    11d6:	4a 95       	dec	r20
    11d8:	f1 f7       	brne	.-4      	; 0x11d6 <__stack+0xd7>
    11da:	81 e0       	ldi	r24, 0x01	; 1
    _delay_us(50);
    LCD_WINST = command;          // put command
    11dc:	8b bb       	out	0x1b, r24	; 27
    11de:	86 ef       	ldi	r24, 0xF6	; 246
    11e0:	8a 95       	dec	r24
    11e2:	f1 f7       	brne	.-4      	; 0x11e0 <__stack+0xe1>
    11e4:	80 81       	ld	r24, Z
    _delay_us(50);
    LCD_CTRL &= ~(1 << LCD_EN);   // E low
    11e6:	8e 7f       	andi	r24, 0xFE	; 254
    11e8:	80 83       	st	Z, r24
    11ea:	82 e0       	ldi	r24, 0x02	; 2
    11ec:	06 c0       	rjmp	.+12     	; 0x11fa <__stack+0xfb>
    11ee:	e6 e6       	ldi	r30, 0x66	; 102
	#else
		//round up by default
		__ticks_dc = (uint32_t)(ceil(fabs(__tmp)));
	#endif

	__builtin_avr_delay_cycles(__ticks_dc);
    11f0:	fe e0       	ldi	r31, 0x0E	; 14
    11f2:	31 97       	sbiw	r30, 0x01	; 1
    11f4:	f1 f7       	brne	.-4      	; 0x11f2 <__stack+0xf3>
    11f6:	00 00       	nop
    11f8:	89 2f       	mov	r24, r25
}

static inline void LCD_Delay(uint8_t ms)
{
    while (ms--) _delay_ms(1);
    11fa:	9f ef       	ldi	r25, 0xFF	; 255
    11fc:	98 0f       	add	r25, r24
    11fe:	81 11       	cpse	r24, r1
    1200:	f6 cf       	rjmp	.-20     	; 0x11ee <__stack+0xef>
    1202:	e5 e6       	ldi	r30, 0x65	; 101
    LCD_CTRL &= ~(1 << LCD_EN);   // E low
}

static inline void LCD_Comm(uint8_t command)
{
    LCD_CTRL &= ~(1 << LCD_RS);   // RS=0 -> command
    1204:	f0 e0       	ldi	r31, 0x00	; 0
    1206:	80 81       	ld	r24, Z
    1208:	8b 7f       	andi	r24, 0xFB	; 251
    120a:	80 83       	st	Z, r24
    120c:	80 81       	ld	r24, Z
    LCD_CTRL &= ~(1 << LCD_RW);   // RW=0 -> write
    120e:	8d 7f       	andi	r24, 0xFD	; 253
    1210:	80 83       	st	Z, r24
    1212:	80 81       	ld	r24, Z
    LCD_CTRL |= (1 << LCD_EN);    // E high
    1214:	81 60       	ori	r24, 0x01	; 1
    1216:	80 83       	st	Z, r24
    1218:	36 ef       	ldi	r19, 0xF6	; 246
	#else
		//round up by default
		__ticks_dc = (uint32_t)(ceil(fabs(__tmp)));
	#endif

	__builtin_avr_delay_cycles(__ticks_dc);
    121a:	3a 95       	dec	r19
    121c:	f1 f7       	brne	.-4      	; 0x121a <__stack+0x11b>
    121e:	80 e8       	ldi	r24, 0x80	; 128
    _delay_us(50);
    LCD_WINST = command;          // put command
    1220:	8b bb       	out	0x1b, r24	; 27
    1222:	46 ef       	ldi	r20, 0xF6	; 246
    1224:	4a 95       	dec	r20
    1226:	f1 f7       	brne	.-4      	; 0x1224 <__stack+0x125>
    1228:	80 81       	ld	r24, Z
    _delay_us(50);
    LCD_CTRL &= ~(1 << LCD_EN);   // E low
    122a:	8e 7f       	andi	r24, 0xFE	; 254
    122c:	80 83       	st	Z, r24
    122e:	a1 e8       	ldi	r26, 0x81	; 129
    1230:	b1 e0       	ldi	r27, 0x01	; 1
    1232:	22 c0       	rjmp	.+68     	; 0x1278 <__stack+0x179>
    1234:	11 96       	adiw	r26, 0x01	; 1
}

static inline void LCD_Str(const char *str)
{
    while (*str != 0) {
        LCD_Char((uint8_t)*str++);
    1236:	81 e0       	ldi	r24, 0x01	; 1
    1238:	06 c0       	rjmp	.+12     	; 0x1246 <__stack+0x147>
    123a:	e6 e6       	ldi	r30, 0x66	; 102
	#else
		//round up by default
		__ticks_dc = (uint32_t)(ceil(fabs(__tmp)));
	#endif

	__builtin_avr_delay_cycles(__ticks_dc);
    123c:	fe e0       	ldi	r31, 0x0E	; 14
    123e:	31 97       	sbiw	r30, 0x01	; 1
    1240:	f1 f7       	brne	.-4      	; 0x123e <__stack+0x13f>
    1242:	00 00       	nop
    1244:	82 2f       	mov	r24, r18
    LCD_CTRL &= ~(1 << LCD_EN);   // E low
}

static inline void LCD_Delay(uint8_t ms)
{
    while (ms--) _delay_ms(1);
    1246:	2f ef       	ldi	r18, 0xFF	; 255
    1248:	28 0f       	add	r18, r24
    124a:	81 11       	cpse	r24, r1
    124c:	f6 cf       	rjmp	.-20     	; 0x123a <__stack+0x13b>
    124e:	e5 e6       	ldi	r30, 0x65	; 101
static inline void LCD_Cursor_Shift(uint8_t p);
static inline void LCD_Cursor_Home(void);

static inline void LCD_Data(uint8_t ch)
{
    LCD_CTRL |= (1 << LCD_RS);    // RS=1 -> data
    1250:	f0 e0       	ldi	r31, 0x00	; 0
    1252:	80 81       	ld	r24, Z
    1254:	84 60       	ori	r24, 0x04	; 4
    1256:	80 83       	st	Z, r24
    1258:	80 81       	ld	r24, Z
    LCD_CTRL &= ~(1 << LCD_RW);   // RW=0 -> write
    125a:	8d 7f       	andi	r24, 0xFD	; 253
    125c:	80 83       	st	Z, r24
    125e:	80 81       	ld	r24, Z
    LCD_CTRL |= (1 << LCD_EN);    // E high
    1260:	81 60       	ori	r24, 0x01	; 1
    1262:	80 83       	st	Z, r24
    1264:	36 ef       	ldi	r19, 0xF6	; 246
	#else
		//round up by default
		__ticks_dc = (uint32_t)(ceil(fabs(__tmp)));
	#endif

	__builtin_avr_delay_cycles(__ticks_dc);
    1266:	3a 95       	dec	r19
    1268:	f1 f7       	brne	.-4      	; 0x1266 <__stack+0x167>
    126a:	9b bb       	out	0x1b, r25	; 27
    _delay_us(50);
    LCD_WDATA = ch;               // put data
    126c:	46 ef       	ldi	r20, 0xF6	; 246
    126e:	4a 95       	dec	r20
    1270:	f1 f7       	brne	.-4      	; 0x126e <__stack+0x16f>
    1272:	80 81       	ld	r24, Z
    _delay_us(50);
    LCD_CTRL &= ~(1 << LCD_EN);   // E low
    1274:	8e 7f       	andi	r24, 0xFE	; 254
    1276:	80 83       	st	Z, r24
    1278:	9c 91       	ld	r25, X
    LCD_Data(ch);
}

static inline void LCD_Str(const char *str)
{
    while (*str != 0) {
    127a:	91 11       	cpse	r25, r1
    127c:	db cf       	rjmp	.-74     	; 0x1234 <__stack+0x135>
    127e:	84 ea       	ldi	r24, 0xA4	; 164
}

// START
static inline uint8_t TWI_Start(void)
{
    TWCR = (1<<TWINT) | (1<<TWSTA) | (1<<TWEN);	// START Ω≈»£ ∫∏≥ª±‚
    1280:	80 93 74 00 	sts	0x0074, r24	; 0x800074 <__TEXT_REGION_LENGTH__+0x7e0074>
    1284:	80 e0       	ldi	r24, 0x00	; 0
// Ω≈»£ ¿¸º€ øœ∑· ∞ÀªÁ π◊ Status »Æ¿Œ + Timeout Check 
// Error code: 0=no error, 1=timeout, 2=status mismatch

static inline uint8_t TWI_TransCheck_ACK(uint8_t Stat)
{
    uint16_t cnt = 0;
    1286:	90 e0       	ldi	r25, 0x00	; 0
    1288:	07 c0       	rjmp	.+14     	; 0x1298 <__stack+0x199>
    128a:	9c 01       	movw	r18, r24
    while (!(TWCR & (1<<TWINT)))				// ∆–≈∂ ¿¸º€ øœ∑·µ… ∂ß ±Ó¡ˆ wait
	{				
        if (cnt++ > ExtDev_ERR_MAX_CNT) return 1; // timeout
    128c:	2f 5f       	subi	r18, 0xFF	; 255
    128e:	3f 4f       	sbci	r19, 0xFF	; 255
    1290:	81 3d       	cpi	r24, 0xD1	; 209
    1292:	97 40       	sbci	r25, 0x07	; 7
    1294:	60 f4       	brcc	.+24     	; 0x12ae <__stack+0x1af>
    1296:	c9 01       	movw	r24, r18
    1298:	20 91 74 00 	lds	r18, 0x0074	; 0x800074 <__TEXT_REGION_LENGTH__+0x7e0074>
// Error code: 0=no error, 1=timeout, 2=status mismatch

static inline uint8_t TWI_TransCheck_ACK(uint8_t Stat)
{
    uint16_t cnt = 0;
    while (!(TWCR & (1<<TWINT)))				// ∆–≈∂ ¿¸º€ øœ∑·µ… ∂ß ±Ó¡ˆ wait
    129c:	22 23       	and	r18, r18
    129e:	ac f7       	brge	.-22     	; 0x128a <__stack+0x18b>
    12a0:	80 91 71 00 	lds	r24, 0x0071	; 0x800071 <__TEXT_REGION_LENGTH__+0x7e0071>
	{				
        if (cnt++ > ExtDev_ERR_MAX_CNT) return 1; // timeout
    }
    if ((TWSR & 0xF8) != Stat) return 2;         // status mismatch, ¿¸º€ ∞ÀªÁ error(2 π›»Ø)
    12a4:	88 7f       	andi	r24, 0xF8	; 248
    12a6:	88 30       	cpi	r24, 0x08	; 8
    12a8:	21 f0       	breq	.+8      	; 0x12b2 <__stack+0x1b3>
    12aa:	22 e0       	ldi	r18, 0x02	; 2
    12ac:	03 c0       	rjmp	.+6      	; 0x12b4 <__stack+0x1b5>
    12ae:	21 e0       	ldi	r18, 0x01	; 1
static inline uint8_t TWI_TransCheck_ACK(uint8_t Stat)
{
    uint16_t cnt = 0;
    while (!(TWCR & (1<<TWINT)))				// ∆–≈∂ ¿¸º€ øœ∑·µ… ∂ß ±Ó¡ˆ wait
	{				
        if (cnt++ > ExtDev_ERR_MAX_CNT) return 1; // timeout
    12b0:	01 c0       	rjmp	.+2      	; 0x12b4 <__stack+0x1b5>
    12b2:	20 e0       	ldi	r18, 0x00	; 0
    }
    if ((TWSR & 0xF8) != Stat) return 2;         // status mismatch, ¿¸º€ ∞ÀªÁ error(2 π›»Ø)
    return 0;
    12b4:	21 11       	cpse	r18, r1

// Master transmit one byte
static inline uint8_t TWI_Master_Transmit(uint8_t Data, uint8_t Addr)
{
    uint8_t ret = TWI_Start();
    if (ret) return ret;
    12b6:	3f c0       	rjmp	.+126    	; 0x1336 <__stack+0x237>
    12b8:	88 e0       	ldi	r24, 0x08	; 8
}

// SLA+W
static inline uint8_t TWI_Write_SLAW(uint8_t Addr)
{
    TWDR = Addr;							// 8-bit slave address (W bit assumed in Addr)
    12ba:	80 93 73 00 	sts	0x0073, r24	; 0x800073 <__TEXT_REGION_LENGTH__+0x7e0073>
    12be:	84 e8       	ldi	r24, 0x84	; 132
    TWCR = (1<<TWINT) | (1<<TWEN);			// SLA + W ∆–≈∂ ∫∏≥ª±‚  
    12c0:	80 93 74 00 	sts	0x0074, r24	; 0x800074 <__TEXT_REGION_LENGTH__+0x7e0074>
    12c4:	80 e0       	ldi	r24, 0x00	; 0
// Ω≈»£ ¿¸º€ øœ∑· ∞ÀªÁ π◊ Status »Æ¿Œ + Timeout Check 
// Error code: 0=no error, 1=timeout, 2=status mismatch

static inline uint8_t TWI_TransCheck_ACK(uint8_t Stat)
{
    uint16_t cnt = 0;
    12c6:	90 e0       	ldi	r25, 0x00	; 0
    12c8:	07 c0       	rjmp	.+14     	; 0x12d8 <__stack+0x1d9>
    12ca:	ac 01       	movw	r20, r24
    while (!(TWCR & (1<<TWINT)))				// ∆–≈∂ ¿¸º€ øœ∑·µ… ∂ß ±Ó¡ˆ wait
	{				
        if (cnt++ > ExtDev_ERR_MAX_CNT) return 1; // timeout
    12cc:	4f 5f       	subi	r20, 0xFF	; 255
    12ce:	5f 4f       	sbci	r21, 0xFF	; 255
    12d0:	81 3d       	cpi	r24, 0xD1	; 209
    12d2:	97 40       	sbci	r25, 0x07	; 7
    12d4:	60 f4       	brcc	.+24     	; 0x12ee <__stack+0x1ef>
    12d6:	ca 01       	movw	r24, r20
    12d8:	30 91 74 00 	lds	r19, 0x0074	; 0x800074 <__TEXT_REGION_LENGTH__+0x7e0074>
// Error code: 0=no error, 1=timeout, 2=status mismatch

static inline uint8_t TWI_TransCheck_ACK(uint8_t Stat)
{
    uint16_t cnt = 0;
    while (!(TWCR & (1<<TWINT)))				// ∆–≈∂ ¿¸º€ øœ∑·µ… ∂ß ±Ó¡ˆ wait
    12dc:	33 23       	and	r19, r19
    12de:	ac f7       	brge	.-22     	; 0x12ca <__stack+0x1cb>
    12e0:	80 91 71 00 	lds	r24, 0x0071	; 0x800071 <__TEXT_REGION_LENGTH__+0x7e0071>
	{				
        if (cnt++ > ExtDev_ERR_MAX_CNT) return 1; // timeout
    }
    if ((TWSR & 0xF8) != Stat) return 2;         // status mismatch, ¿¸º€ ∞ÀªÁ error(2 π›»Ø)
    12e4:	88 7f       	andi	r24, 0xF8	; 248
    12e6:	88 31       	cpi	r24, 0x18	; 24
    12e8:	19 f0       	breq	.+6      	; 0x12f0 <__stack+0x1f1>
    12ea:	22 e0       	ldi	r18, 0x02	; 2
    12ec:	01 c0       	rjmp	.+2      	; 0x12f0 <__stack+0x1f1>
    12ee:	21 e0       	ldi	r18, 0x01	; 1
static inline uint8_t TWI_TransCheck_ACK(uint8_t Stat)
{
    uint16_t cnt = 0;
    while (!(TWCR & (1<<TWINT)))				// ∆–≈∂ ¿¸º€ øœ∑·µ… ∂ß ±Ó¡ˆ wait
	{				
        if (cnt++ > ExtDev_ERR_MAX_CNT) return 1; // timeout
    12f0:	21 11       	cpse	r18, r1
static inline uint8_t TWI_Master_Transmit(uint8_t Data, uint8_t Addr)
{
    uint8_t ret = TWI_Start();
    if (ret) return ret;
    ret = TWI_Write_SLAW(Addr);
    if (ret) return ret;
    12f2:	21 c0       	rjmp	.+66     	; 0x1336 <__stack+0x237>
    12f4:	83 e3       	ldi	r24, 0x33	; 51
}

// DATA (write), µ•¿Ã≈Õ ∆–≈∂ ¿¸º€
static inline uint8_t TWI_Write_Data(uint8_t Data)
{
    TWDR = Data;
    12f6:	80 93 73 00 	sts	0x0073, r24	; 0x800073 <__TEXT_REGION_LENGTH__+0x7e0073>
    12fa:	84 e8       	ldi	r24, 0x84	; 132
    TWCR = (1<<TWINT) | (1<<TWEN);		   // µ•¿Ã≈Õ ∆–≈∂ º€Ω≈
    12fc:	80 93 74 00 	sts	0x0074, r24	; 0x800074 <__TEXT_REGION_LENGTH__+0x7e0074>
    1300:	80 e0       	ldi	r24, 0x00	; 0
// Ω≈»£ ¿¸º€ øœ∑· ∞ÀªÁ π◊ Status »Æ¿Œ + Timeout Check 
// Error code: 0=no error, 1=timeout, 2=status mismatch

static inline uint8_t TWI_TransCheck_ACK(uint8_t Stat)
{
    uint16_t cnt = 0;
    1302:	90 e0       	ldi	r25, 0x00	; 0
    1304:	07 c0       	rjmp	.+14     	; 0x1314 <__stack+0x215>
    1306:	ac 01       	movw	r20, r24
    while (!(TWCR & (1<<TWINT)))				// ∆–≈∂ ¿¸º€ øœ∑·µ… ∂ß ±Ó¡ˆ wait
	{				
        if (cnt++ > ExtDev_ERR_MAX_CNT) return 1; // timeout
    1308:	4f 5f       	subi	r20, 0xFF	; 255
    130a:	5f 4f       	sbci	r21, 0xFF	; 255
    130c:	81 3d       	cpi	r24, 0xD1	; 209
    130e:	97 40       	sbci	r25, 0x07	; 7
    1310:	60 f4       	brcc	.+24     	; 0x132a <__stack+0x22b>
    1312:	ca 01       	movw	r24, r20
    1314:	30 91 74 00 	lds	r19, 0x0074	; 0x800074 <__TEXT_REGION_LENGTH__+0x7e0074>
// Error code: 0=no error, 1=timeout, 2=status mismatch

static inline uint8_t TWI_TransCheck_ACK(uint8_t Stat)
{
    uint16_t cnt = 0;
    while (!(TWCR & (1<<TWINT)))				// ∆–≈∂ ¿¸º€ øœ∑·µ… ∂ß ±Ó¡ˆ wait
    1318:	33 23       	and	r19, r19
    131a:	ac f7       	brge	.-22     	; 0x1306 <__stack+0x207>
    131c:	80 91 71 00 	lds	r24, 0x0071	; 0x800071 <__TEXT_REGION_LENGTH__+0x7e0071>
	{				
        if (cnt++ > ExtDev_ERR_MAX_CNT) return 1; // timeout
    }
    if ((TWSR & 0xF8) != Stat) return 2;         // status mismatch, ¿¸º€ ∞ÀªÁ error(2 π›»Ø)
    1320:	88 7f       	andi	r24, 0xF8	; 248
    1322:	88 32       	cpi	r24, 0x28	; 40
    1324:	19 f0       	breq	.+6      	; 0x132c <__stack+0x22d>
    1326:	22 e0       	ldi	r18, 0x02	; 2
    1328:	01 c0       	rjmp	.+2      	; 0x132c <__stack+0x22d>
    132a:	21 e0       	ldi	r18, 0x01	; 1
static inline uint8_t TWI_TransCheck_ACK(uint8_t Stat)
{
    uint16_t cnt = 0;
    while (!(TWCR & (1<<TWINT)))				// ∆–≈∂ ¿¸º€ øœ∑·µ… ∂ß ±Ó¡ˆ wait
	{				
        if (cnt++ > ExtDev_ERR_MAX_CNT) return 1; // timeout
    132c:	21 11       	cpse	r18, r1
    uint8_t ret = TWI_Start();
    if (ret) return ret;
    ret = TWI_Write_SLAW(Addr);
    if (ret) return ret;
    ret = TWI_Write_Data(Data);
    if (ret) return ret;
    132e:	03 c0       	rjmp	.+6      	; 0x1336 <__stack+0x237>
    1330:	84 e9       	ldi	r24, 0x94	; 148
}

// STOP
static inline void TWI_Stop(void)
{
    TWCR = (1<<TWINT) | (1<<TWSTO) | (1<<TWEN);
    1332:	80 93 74 00 	sts	0x0074, r24	; 0x800074 <__TEXT_REGION_LENGTH__+0x7e0074>
    1336:	c1 e0       	ldi	r28, 0x01	; 1
				program_status = STATUS_SEND_A_TO_Z;
    1338:	7e c1       	rjmp	.+764    	; 0x1636 <__stack+0x537>
    133a:	c2 30       	cpi	r28, 0x02	; 2
				TWI_Master_Transmit(SLAVE_LCD_CLEAR_CMD, SLAVE_ADDR); // command to clear slave lcd
				break;
				case PC_BTN_2:
				// TODO: Add function for key 3
				// previous_program_status = program_status;
				if(program_status == STATUS_SEND_STRING_POLLING) previous_program_status = STATUS_IDLE; // sensing the re-entry
    133c:	09 f4       	brne	.+2      	; 0x1340 <__stack+0x241>
    133e:	df ef       	ldi	r29, 0xFF	; 255
    1340:	e5 e6       	ldi	r30, 0x65	; 101
    LCD_CTRL &= ~(1 << LCD_EN);   // E low
}

static inline void LCD_Comm(uint8_t command)
{
    LCD_CTRL &= ~(1 << LCD_RS);   // RS=0 -> command
    1342:	f0 e0       	ldi	r31, 0x00	; 0
    1344:	80 81       	ld	r24, Z
    1346:	8b 7f       	andi	r24, 0xFB	; 251
    1348:	80 83       	st	Z, r24
    134a:	80 81       	ld	r24, Z
    LCD_CTRL &= ~(1 << LCD_RW);   // RW=0 -> write
    134c:	8d 7f       	andi	r24, 0xFD	; 253
    134e:	80 83       	st	Z, r24
    1350:	80 81       	ld	r24, Z
    LCD_CTRL |= (1 << LCD_EN);    // E high
    1352:	81 60       	ori	r24, 0x01	; 1
    1354:	80 83       	st	Z, r24
    1356:	46 ef       	ldi	r20, 0xF6	; 246
    1358:	4a 95       	dec	r20
    135a:	f1 f7       	brne	.-4      	; 0x1358 <__stack+0x259>
    135c:	81 e0       	ldi	r24, 0x01	; 1
    _delay_us(50);
    LCD_WINST = command;          // put command
    135e:	8b bb       	out	0x1b, r24	; 27
    1360:	86 ef       	ldi	r24, 0xF6	; 246
    1362:	8a 95       	dec	r24
    1364:	f1 f7       	brne	.-4      	; 0x1362 <__stack+0x263>
    1366:	80 81       	ld	r24, Z
    _delay_us(50);
    LCD_CTRL &= ~(1 << LCD_EN);   // E low
    1368:	8e 7f       	andi	r24, 0xFE	; 254
    136a:	80 83       	st	Z, r24
    136c:	82 e0       	ldi	r24, 0x02	; 2
    136e:	06 c0       	rjmp	.+12     	; 0x137c <__stack+0x27d>
    1370:	e6 e6       	ldi	r30, 0x66	; 102
	#else
		//round up by default
		__ticks_dc = (uint32_t)(ceil(fabs(__tmp)));
	#endif

	__builtin_avr_delay_cycles(__ticks_dc);
    1372:	fe e0       	ldi	r31, 0x0E	; 14
    1374:	31 97       	sbiw	r30, 0x01	; 1
    1376:	f1 f7       	brne	.-4      	; 0x1374 <__stack+0x275>
    1378:	00 00       	nop
    137a:	89 2f       	mov	r24, r25
}

static inline void LCD_Delay(uint8_t ms)
{
    while (ms--) _delay_ms(1);
    137c:	9f ef       	ldi	r25, 0xFF	; 255
    137e:	98 0f       	add	r25, r24
    1380:	81 11       	cpse	r24, r1
    1382:	f6 cf       	rjmp	.-20     	; 0x1370 <__stack+0x271>
    1384:	e5 e6       	ldi	r30, 0x65	; 101
    LCD_CTRL &= ~(1 << LCD_EN);   // E low
}

static inline void LCD_Comm(uint8_t command)
{
    LCD_CTRL &= ~(1 << LCD_RS);   // RS=0 -> command
    1386:	f0 e0       	ldi	r31, 0x00	; 0
    1388:	80 81       	ld	r24, Z
    138a:	8b 7f       	andi	r24, 0xFB	; 251
    138c:	80 83       	st	Z, r24
    138e:	80 81       	ld	r24, Z
    LCD_CTRL &= ~(1 << LCD_RW);   // RW=0 -> write
    1390:	8d 7f       	andi	r24, 0xFD	; 253
    1392:	80 83       	st	Z, r24
    1394:	80 81       	ld	r24, Z
    LCD_CTRL |= (1 << LCD_EN);    // E high
    1396:	81 60       	ori	r24, 0x01	; 1
    1398:	80 83       	st	Z, r24
    139a:	36 ef       	ldi	r19, 0xF6	; 246
	#else
		//round up by default
		__ticks_dc = (uint32_t)(ceil(fabs(__tmp)));
	#endif

	__builtin_avr_delay_cycles(__ticks_dc);
    139c:	3a 95       	dec	r19
    139e:	f1 f7       	brne	.-4      	; 0x139c <__stack+0x29d>
    13a0:	80 e8       	ldi	r24, 0x80	; 128
    _delay_us(50);
    LCD_WINST = command;          // put command
    13a2:	8b bb       	out	0x1b, r24	; 27
    13a4:	46 ef       	ldi	r20, 0xF6	; 246
    13a6:	4a 95       	dec	r20
    13a8:	f1 f7       	brne	.-4      	; 0x13a6 <__stack+0x2a7>
    13aa:	80 81       	ld	r24, Z
    _delay_us(50);
    LCD_CTRL &= ~(1 << LCD_EN);   // E low
    13ac:	8e 7f       	andi	r24, 0xFE	; 254
    13ae:	80 83       	st	Z, r24
    13b0:	ae e8       	ldi	r26, 0x8E	; 142
    13b2:	b1 e0       	ldi	r27, 0x01	; 1
    13b4:	22 c0       	rjmp	.+68     	; 0x13fa <__stack+0x2fb>
    13b6:	11 96       	adiw	r26, 0x01	; 1
}

static inline void LCD_Str(const char *str)
{
    while (*str != 0) {
        LCD_Char((uint8_t)*str++);
    13b8:	81 e0       	ldi	r24, 0x01	; 1
    13ba:	06 c0       	rjmp	.+12     	; 0x13c8 <__stack+0x2c9>
    13bc:	e6 e6       	ldi	r30, 0x66	; 102
	#else
		//round up by default
		__ticks_dc = (uint32_t)(ceil(fabs(__tmp)));
	#endif

	__builtin_avr_delay_cycles(__ticks_dc);
    13be:	fe e0       	ldi	r31, 0x0E	; 14
    13c0:	31 97       	sbiw	r30, 0x01	; 1
    13c2:	f1 f7       	brne	.-4      	; 0x13c0 <__stack+0x2c1>
    13c4:	00 00       	nop
    13c6:	82 2f       	mov	r24, r18
    LCD_CTRL &= ~(1 << LCD_EN);   // E low
}

static inline void LCD_Delay(uint8_t ms)
{
    while (ms--) _delay_ms(1);
    13c8:	2f ef       	ldi	r18, 0xFF	; 255
    13ca:	28 0f       	add	r18, r24
    13cc:	81 11       	cpse	r24, r1
    13ce:	f6 cf       	rjmp	.-20     	; 0x13bc <__stack+0x2bd>
    13d0:	e5 e6       	ldi	r30, 0x65	; 101
static inline void LCD_Cursor_Shift(uint8_t p);
static inline void LCD_Cursor_Home(void);

static inline void LCD_Data(uint8_t ch)
{
    LCD_CTRL |= (1 << LCD_RS);    // RS=1 -> data
    13d2:	f0 e0       	ldi	r31, 0x00	; 0
    13d4:	80 81       	ld	r24, Z
    13d6:	84 60       	ori	r24, 0x04	; 4
    13d8:	80 83       	st	Z, r24
    13da:	80 81       	ld	r24, Z
    LCD_CTRL &= ~(1 << LCD_RW);   // RW=0 -> write
    13dc:	8d 7f       	andi	r24, 0xFD	; 253
    13de:	80 83       	st	Z, r24
    13e0:	80 81       	ld	r24, Z
    LCD_CTRL |= (1 << LCD_EN);    // E high
    13e2:	81 60       	ori	r24, 0x01	; 1
    13e4:	80 83       	st	Z, r24
    13e6:	36 ef       	ldi	r19, 0xF6	; 246
	#else
		//round up by default
		__ticks_dc = (uint32_t)(ceil(fabs(__tmp)));
	#endif

	__builtin_avr_delay_cycles(__ticks_dc);
    13e8:	3a 95       	dec	r19
    13ea:	f1 f7       	brne	.-4      	; 0x13e8 <__stack+0x2e9>
    13ec:	9b bb       	out	0x1b, r25	; 27
    _delay_us(50);
    LCD_WDATA = ch;               // put data
    13ee:	46 ef       	ldi	r20, 0xF6	; 246
    13f0:	4a 95       	dec	r20
    13f2:	f1 f7       	brne	.-4      	; 0x13f0 <__stack+0x2f1>
    13f4:	80 81       	ld	r24, Z
    _delay_us(50);
    LCD_CTRL &= ~(1 << LCD_EN);   // E low
    13f6:	8e 7f       	andi	r24, 0xFE	; 254
    13f8:	80 83       	st	Z, r24
    13fa:	9c 91       	ld	r25, X
    LCD_Data(ch);
}

static inline void LCD_Str(const char *str)
{
    while (*str != 0) {
    13fc:	91 11       	cpse	r25, r1
    13fe:	db cf       	rjmp	.-74     	; 0x13b6 <__stack+0x2b7>
    1400:	84 ea       	ldi	r24, 0xA4	; 164
}

// START
static inline uint8_t TWI_Start(void)
{
    TWCR = (1<<TWINT) | (1<<TWSTA) | (1<<TWEN);	// START Ω≈»£ ∫∏≥ª±‚
    1402:	80 93 74 00 	sts	0x0074, r24	; 0x800074 <__TEXT_REGION_LENGTH__+0x7e0074>
    1406:	80 e0       	ldi	r24, 0x00	; 0
// Ω≈»£ ¿¸º€ øœ∑· ∞ÀªÁ π◊ Status »Æ¿Œ + Timeout Check 
// Error code: 0=no error, 1=timeout, 2=status mismatch

static inline uint8_t TWI_TransCheck_ACK(uint8_t Stat)
{
    uint16_t cnt = 0;
    1408:	90 e0       	ldi	r25, 0x00	; 0
    140a:	07 c0       	rjmp	.+14     	; 0x141a <__stack+0x31b>
    140c:	9c 01       	movw	r18, r24
    while (!(TWCR & (1<<TWINT)))				// ∆–≈∂ ¿¸º€ øœ∑·µ… ∂ß ±Ó¡ˆ wait
	{				
        if (cnt++ > ExtDev_ERR_MAX_CNT) return 1; // timeout
    140e:	2f 5f       	subi	r18, 0xFF	; 255
    1410:	3f 4f       	sbci	r19, 0xFF	; 255
    1412:	81 3d       	cpi	r24, 0xD1	; 209
    1414:	97 40       	sbci	r25, 0x07	; 7
    1416:	60 f4       	brcc	.+24     	; 0x1430 <__stack+0x331>
    1418:	c9 01       	movw	r24, r18
    141a:	20 91 74 00 	lds	r18, 0x0074	; 0x800074 <__TEXT_REGION_LENGTH__+0x7e0074>
// Error code: 0=no error, 1=timeout, 2=status mismatch

static inline uint8_t TWI_TransCheck_ACK(uint8_t Stat)
{
    uint16_t cnt = 0;
    while (!(TWCR & (1<<TWINT)))				// ∆–≈∂ ¿¸º€ øœ∑·µ… ∂ß ±Ó¡ˆ wait
    141e:	22 23       	and	r18, r18
    1420:	ac f7       	brge	.-22     	; 0x140c <__stack+0x30d>
    1422:	80 91 71 00 	lds	r24, 0x0071	; 0x800071 <__TEXT_REGION_LENGTH__+0x7e0071>
	{				
        if (cnt++ > ExtDev_ERR_MAX_CNT) return 1; // timeout
    }
    if ((TWSR & 0xF8) != Stat) return 2;         // status mismatch, ¿¸º€ ∞ÀªÁ error(2 π›»Ø)
    1426:	88 7f       	andi	r24, 0xF8	; 248
    1428:	88 30       	cpi	r24, 0x08	; 8
    142a:	21 f0       	breq	.+8      	; 0x1434 <__stack+0x335>
    142c:	22 e0       	ldi	r18, 0x02	; 2
    142e:	03 c0       	rjmp	.+6      	; 0x1436 <__stack+0x337>
    1430:	21 e0       	ldi	r18, 0x01	; 1
static inline uint8_t TWI_TransCheck_ACK(uint8_t Stat)
{
    uint16_t cnt = 0;
    while (!(TWCR & (1<<TWINT)))				// ∆–≈∂ ¿¸º€ øœ∑·µ… ∂ß ±Ó¡ˆ wait
	{				
        if (cnt++ > ExtDev_ERR_MAX_CNT) return 1; // timeout
    1432:	01 c0       	rjmp	.+2      	; 0x1436 <__stack+0x337>
    1434:	20 e0       	ldi	r18, 0x00	; 0
    }
    if ((TWSR & 0xF8) != Stat) return 2;         // status mismatch, ¿¸º€ ∞ÀªÁ error(2 π›»Ø)
    return 0;
    1436:	21 11       	cpse	r18, r1

// Master transmit one byte
static inline uint8_t TWI_Master_Transmit(uint8_t Data, uint8_t Addr)
{
    uint8_t ret = TWI_Start();
    if (ret) return ret;
    1438:	3f c0       	rjmp	.+126    	; 0x14b8 <__stack+0x3b9>
    143a:	88 e0       	ldi	r24, 0x08	; 8
}

// SLA+W
static inline uint8_t TWI_Write_SLAW(uint8_t Addr)
{
    TWDR = Addr;							// 8-bit slave address (W bit assumed in Addr)
    143c:	80 93 73 00 	sts	0x0073, r24	; 0x800073 <__TEXT_REGION_LENGTH__+0x7e0073>
    1440:	84 e8       	ldi	r24, 0x84	; 132
    TWCR = (1<<TWINT) | (1<<TWEN);			// SLA + W ∆–≈∂ ∫∏≥ª±‚  
    1442:	80 93 74 00 	sts	0x0074, r24	; 0x800074 <__TEXT_REGION_LENGTH__+0x7e0074>
    1446:	80 e0       	ldi	r24, 0x00	; 0
// Ω≈»£ ¿¸º€ øœ∑· ∞ÀªÁ π◊ Status »Æ¿Œ + Timeout Check 
// Error code: 0=no error, 1=timeout, 2=status mismatch

static inline uint8_t TWI_TransCheck_ACK(uint8_t Stat)
{
    uint16_t cnt = 0;
    1448:	90 e0       	ldi	r25, 0x00	; 0
    144a:	07 c0       	rjmp	.+14     	; 0x145a <__stack+0x35b>
    144c:	ac 01       	movw	r20, r24
    while (!(TWCR & (1<<TWINT)))				// ∆–≈∂ ¿¸º€ øœ∑·µ… ∂ß ±Ó¡ˆ wait
	{				
        if (cnt++ > ExtDev_ERR_MAX_CNT) return 1; // timeout
    144e:	4f 5f       	subi	r20, 0xFF	; 255
    1450:	5f 4f       	sbci	r21, 0xFF	; 255
    1452:	81 3d       	cpi	r24, 0xD1	; 209
    1454:	97 40       	sbci	r25, 0x07	; 7
    1456:	60 f4       	brcc	.+24     	; 0x1470 <__stack+0x371>
    1458:	ca 01       	movw	r24, r20
    145a:	30 91 74 00 	lds	r19, 0x0074	; 0x800074 <__TEXT_REGION_LENGTH__+0x7e0074>
// Error code: 0=no error, 1=timeout, 2=status mismatch

static inline uint8_t TWI_TransCheck_ACK(uint8_t Stat)
{
    uint16_t cnt = 0;
    while (!(TWCR & (1<<TWINT)))				// ∆–≈∂ ¿¸º€ øœ∑·µ… ∂ß ±Ó¡ˆ wait
    145e:	33 23       	and	r19, r19
    1460:	ac f7       	brge	.-22     	; 0x144c <__stack+0x34d>
    1462:	80 91 71 00 	lds	r24, 0x0071	; 0x800071 <__TEXT_REGION_LENGTH__+0x7e0071>
	{				
        if (cnt++ > ExtDev_ERR_MAX_CNT) return 1; // timeout
    }
    if ((TWSR & 0xF8) != Stat) return 2;         // status mismatch, ¿¸º€ ∞ÀªÁ error(2 π›»Ø)
    1466:	88 7f       	andi	r24, 0xF8	; 248
    1468:	88 31       	cpi	r24, 0x18	; 24
    146a:	19 f0       	breq	.+6      	; 0x1472 <__stack+0x373>
    146c:	22 e0       	ldi	r18, 0x02	; 2
    146e:	01 c0       	rjmp	.+2      	; 0x1472 <__stack+0x373>
    1470:	21 e0       	ldi	r18, 0x01	; 1
static inline uint8_t TWI_TransCheck_ACK(uint8_t Stat)
{
    uint16_t cnt = 0;
    while (!(TWCR & (1<<TWINT)))				// ∆–≈∂ ¿¸º€ øœ∑·µ… ∂ß ±Ó¡ˆ wait
	{				
        if (cnt++ > ExtDev_ERR_MAX_CNT) return 1; // timeout
    1472:	21 11       	cpse	r18, r1
static inline uint8_t TWI_Master_Transmit(uint8_t Data, uint8_t Addr)
{
    uint8_t ret = TWI_Start();
    if (ret) return ret;
    ret = TWI_Write_SLAW(Addr);
    if (ret) return ret;
    1474:	21 c0       	rjmp	.+66     	; 0x14b8 <__stack+0x3b9>
    1476:	83 e3       	ldi	r24, 0x33	; 51
}

// DATA (write), µ•¿Ã≈Õ ∆–≈∂ ¿¸º€
static inline uint8_t TWI_Write_Data(uint8_t Data)
{
    TWDR = Data;
    1478:	80 93 73 00 	sts	0x0073, r24	; 0x800073 <__TEXT_REGION_LENGTH__+0x7e0073>
    147c:	84 e8       	ldi	r24, 0x84	; 132
    TWCR = (1<<TWINT) | (1<<TWEN);		   // µ•¿Ã≈Õ ∆–≈∂ º€Ω≈
    147e:	80 93 74 00 	sts	0x0074, r24	; 0x800074 <__TEXT_REGION_LENGTH__+0x7e0074>
    1482:	80 e0       	ldi	r24, 0x00	; 0
// Ω≈»£ ¿¸º€ øœ∑· ∞ÀªÁ π◊ Status »Æ¿Œ + Timeout Check 
// Error code: 0=no error, 1=timeout, 2=status mismatch

static inline uint8_t TWI_TransCheck_ACK(uint8_t Stat)
{
    uint16_t cnt = 0;
    1484:	90 e0       	ldi	r25, 0x00	; 0
    1486:	07 c0       	rjmp	.+14     	; 0x1496 <__stack+0x397>
    1488:	ac 01       	movw	r20, r24
    while (!(TWCR & (1<<TWINT)))				// ∆–≈∂ ¿¸º€ øœ∑·µ… ∂ß ±Ó¡ˆ wait
	{				
        if (cnt++ > ExtDev_ERR_MAX_CNT) return 1; // timeout
    148a:	4f 5f       	subi	r20, 0xFF	; 255
    148c:	5f 4f       	sbci	r21, 0xFF	; 255
    148e:	81 3d       	cpi	r24, 0xD1	; 209
    1490:	97 40       	sbci	r25, 0x07	; 7
    1492:	60 f4       	brcc	.+24     	; 0x14ac <__stack+0x3ad>
    1494:	ca 01       	movw	r24, r20
    1496:	30 91 74 00 	lds	r19, 0x0074	; 0x800074 <__TEXT_REGION_LENGTH__+0x7e0074>
// Error code: 0=no error, 1=timeout, 2=status mismatch

static inline uint8_t TWI_TransCheck_ACK(uint8_t Stat)
{
    uint16_t cnt = 0;
    while (!(TWCR & (1<<TWINT)))				// ∆–≈∂ ¿¸º€ øœ∑·µ… ∂ß ±Ó¡ˆ wait
    149a:	33 23       	and	r19, r19
    149c:	ac f7       	brge	.-22     	; 0x1488 <__stack+0x389>
    149e:	80 91 71 00 	lds	r24, 0x0071	; 0x800071 <__TEXT_REGION_LENGTH__+0x7e0071>
	{				
        if (cnt++ > ExtDev_ERR_MAX_CNT) return 1; // timeout
    }
    if ((TWSR & 0xF8) != Stat) return 2;         // status mismatch, ¿¸º€ ∞ÀªÁ error(2 π›»Ø)
    14a2:	88 7f       	andi	r24, 0xF8	; 248
    14a4:	88 32       	cpi	r24, 0x28	; 40
    14a6:	19 f0       	breq	.+6      	; 0x14ae <__stack+0x3af>
    14a8:	22 e0       	ldi	r18, 0x02	; 2
    14aa:	01 c0       	rjmp	.+2      	; 0x14ae <__stack+0x3af>
    14ac:	21 e0       	ldi	r18, 0x01	; 1
static inline uint8_t TWI_TransCheck_ACK(uint8_t Stat)
{
    uint16_t cnt = 0;
    while (!(TWCR & (1<<TWINT)))				// ∆–≈∂ ¿¸º€ øœ∑·µ… ∂ß ±Ó¡ˆ wait
	{				
        if (cnt++ > ExtDev_ERR_MAX_CNT) return 1; // timeout
    14ae:	21 11       	cpse	r18, r1
    uint8_t ret = TWI_Start();
    if (ret) return ret;
    ret = TWI_Write_SLAW(Addr);
    if (ret) return ret;
    ret = TWI_Write_Data(Data);
    if (ret) return ret;
    14b0:	03 c0       	rjmp	.+6      	; 0x14b8 <__stack+0x3b9>
    14b2:	84 e9       	ldi	r24, 0x94	; 148
}

// STOP
static inline void TWI_Stop(void)
{
    TWCR = (1<<TWINT) | (1<<TWSTO) | (1<<TWEN);
    14b4:	80 93 74 00 	sts	0x0074, r24	; 0x800074 <__TEXT_REGION_LENGTH__+0x7e0074>
    14b8:	c2 e0       	ldi	r28, 0x02	; 2
				program_status = STATUS_SEND_STRING_POLLING;
    14ba:	bd c0       	rjmp	.+378    	; 0x1636 <__stack+0x537>
    14bc:	e5 e6       	ldi	r30, 0x65	; 101
    LCD_CTRL &= ~(1 << LCD_EN);   // E low
}

static inline void LCD_Comm(uint8_t command)
{
    LCD_CTRL &= ~(1 << LCD_RS);   // RS=0 -> command
    14be:	f0 e0       	ldi	r31, 0x00	; 0
    14c0:	80 81       	ld	r24, Z
    14c2:	8b 7f       	andi	r24, 0xFB	; 251
    14c4:	80 83       	st	Z, r24
    14c6:	80 81       	ld	r24, Z
    LCD_CTRL &= ~(1 << LCD_RW);   // RW=0 -> write
    14c8:	8d 7f       	andi	r24, 0xFD	; 253
    14ca:	80 83       	st	Z, r24
    14cc:	80 81       	ld	r24, Z
    LCD_CTRL |= (1 << LCD_EN);    // E high
    14ce:	81 60       	ori	r24, 0x01	; 1
    14d0:	80 83       	st	Z, r24
    14d2:	46 ef       	ldi	r20, 0xF6	; 246
    14d4:	4a 95       	dec	r20
    14d6:	f1 f7       	brne	.-4      	; 0x14d4 <__stack+0x3d5>
    14d8:	81 e0       	ldi	r24, 0x01	; 1
    _delay_us(50);
    LCD_WINST = command;          // put command
    14da:	8b bb       	out	0x1b, r24	; 27
    14dc:	86 ef       	ldi	r24, 0xF6	; 246
    14de:	8a 95       	dec	r24
    14e0:	f1 f7       	brne	.-4      	; 0x14de <__stack+0x3df>
    14e2:	80 81       	ld	r24, Z
    _delay_us(50);
    LCD_CTRL &= ~(1 << LCD_EN);   // E low
    14e4:	8e 7f       	andi	r24, 0xFE	; 254
    14e6:	80 83       	st	Z, r24
    14e8:	82 e0       	ldi	r24, 0x02	; 2
    14ea:	06 c0       	rjmp	.+12     	; 0x14f8 <__stack+0x3f9>
    14ec:	e6 e6       	ldi	r30, 0x66	; 102
	#else
		//round up by default
		__ticks_dc = (uint32_t)(ceil(fabs(__tmp)));
	#endif

	__builtin_avr_delay_cycles(__ticks_dc);
    14ee:	fe e0       	ldi	r31, 0x0E	; 14
    14f0:	31 97       	sbiw	r30, 0x01	; 1
    14f2:	f1 f7       	brne	.-4      	; 0x14f0 <__stack+0x3f1>
    14f4:	00 00       	nop
    14f6:	89 2f       	mov	r24, r25
}

static inline void LCD_Delay(uint8_t ms)
{
    while (ms--) _delay_ms(1);
    14f8:	9f ef       	ldi	r25, 0xFF	; 255
    14fa:	98 0f       	add	r25, r24
    14fc:	81 11       	cpse	r24, r1
    14fe:	f6 cf       	rjmp	.-20     	; 0x14ec <__stack+0x3ed>
    1500:	e5 e6       	ldi	r30, 0x65	; 101
    LCD_CTRL &= ~(1 << LCD_EN);   // E low
}

static inline void LCD_Comm(uint8_t command)
{
    LCD_CTRL &= ~(1 << LCD_RS);   // RS=0 -> command
    1502:	f0 e0       	ldi	r31, 0x00	; 0
    1504:	80 81       	ld	r24, Z
    1506:	8b 7f       	andi	r24, 0xFB	; 251
    1508:	80 83       	st	Z, r24
    150a:	80 81       	ld	r24, Z
    LCD_CTRL &= ~(1 << LCD_RW);   // RW=0 -> write
    150c:	8d 7f       	andi	r24, 0xFD	; 253
    150e:	80 83       	st	Z, r24
    1510:	80 81       	ld	r24, Z
    LCD_CTRL |= (1 << LCD_EN);    // E high
    1512:	81 60       	ori	r24, 0x01	; 1
    1514:	80 83       	st	Z, r24
    1516:	36 ef       	ldi	r19, 0xF6	; 246
	#else
		//round up by default
		__ticks_dc = (uint32_t)(ceil(fabs(__tmp)));
	#endif

	__builtin_avr_delay_cycles(__ticks_dc);
    1518:	3a 95       	dec	r19
    151a:	f1 f7       	brne	.-4      	; 0x1518 <__stack+0x419>
    151c:	80 e8       	ldi	r24, 0x80	; 128
    _delay_us(50);
    LCD_WINST = command;          // put command
    151e:	8b bb       	out	0x1b, r24	; 27
    1520:	46 ef       	ldi	r20, 0xF6	; 246
    1522:	4a 95       	dec	r20
    1524:	f1 f7       	brne	.-4      	; 0x1522 <__stack+0x423>
    1526:	80 81       	ld	r24, Z
    _delay_us(50);
    LCD_CTRL &= ~(1 << LCD_EN);   // E low
    1528:	8e 7f       	andi	r24, 0xFE	; 254
    152a:	80 83       	st	Z, r24
    152c:	ab e9       	ldi	r26, 0x9B	; 155
    152e:	b1 e0       	ldi	r27, 0x01	; 1
    1530:	22 c0       	rjmp	.+68     	; 0x1576 <__stack+0x477>
    1532:	11 96       	adiw	r26, 0x01	; 1
}

static inline void LCD_Str(const char *str)
{
    while (*str != 0) {
        LCD_Char((uint8_t)*str++);
    1534:	81 e0       	ldi	r24, 0x01	; 1
    1536:	06 c0       	rjmp	.+12     	; 0x1544 <__stack+0x445>
    1538:	e6 e6       	ldi	r30, 0x66	; 102
	#else
		//round up by default
		__ticks_dc = (uint32_t)(ceil(fabs(__tmp)));
	#endif

	__builtin_avr_delay_cycles(__ticks_dc);
    153a:	fe e0       	ldi	r31, 0x0E	; 14
    153c:	31 97       	sbiw	r30, 0x01	; 1
    153e:	f1 f7       	brne	.-4      	; 0x153c <__stack+0x43d>
    1540:	00 00       	nop
    1542:	82 2f       	mov	r24, r18
    LCD_CTRL &= ~(1 << LCD_EN);   // E low
}

static inline void LCD_Delay(uint8_t ms)
{
    while (ms--) _delay_ms(1);
    1544:	2f ef       	ldi	r18, 0xFF	; 255
    1546:	28 0f       	add	r18, r24
    1548:	81 11       	cpse	r24, r1
    154a:	f6 cf       	rjmp	.-20     	; 0x1538 <__stack+0x439>
    154c:	e5 e6       	ldi	r30, 0x65	; 101
static inline void LCD_Cursor_Shift(uint8_t p);
static inline void LCD_Cursor_Home(void);

static inline void LCD_Data(uint8_t ch)
{
    LCD_CTRL |= (1 << LCD_RS);    // RS=1 -> data
    154e:	f0 e0       	ldi	r31, 0x00	; 0
    1550:	80 81       	ld	r24, Z
    1552:	84 60       	ori	r24, 0x04	; 4
    1554:	80 83       	st	Z, r24
    1556:	80 81       	ld	r24, Z
    LCD_CTRL &= ~(1 << LCD_RW);   // RW=0 -> write
    1558:	8d 7f       	andi	r24, 0xFD	; 253
    155a:	80 83       	st	Z, r24
    155c:	80 81       	ld	r24, Z
    LCD_CTRL |= (1 << LCD_EN);    // E high
    155e:	81 60       	ori	r24, 0x01	; 1
    1560:	80 83       	st	Z, r24
    1562:	36 ef       	ldi	r19, 0xF6	; 246
	#else
		//round up by default
		__ticks_dc = (uint32_t)(ceil(fabs(__tmp)));
	#endif

	__builtin_avr_delay_cycles(__ticks_dc);
    1564:	3a 95       	dec	r19
    1566:	f1 f7       	brne	.-4      	; 0x1564 <__stack+0x465>
    1568:	9b bb       	out	0x1b, r25	; 27
    _delay_us(50);
    LCD_WDATA = ch;               // put data
    156a:	46 ef       	ldi	r20, 0xF6	; 246
    156c:	4a 95       	dec	r20
    156e:	f1 f7       	brne	.-4      	; 0x156c <__stack+0x46d>
    1570:	80 81       	ld	r24, Z
    _delay_us(50);
    LCD_CTRL &= ~(1 << LCD_EN);   // E low
    1572:	8e 7f       	andi	r24, 0xFE	; 254
    1574:	80 83       	st	Z, r24
    1576:	9c 91       	ld	r25, X
    LCD_Data(ch);
}

static inline void LCD_Str(const char *str)
{
    while (*str != 0) {
    1578:	91 11       	cpse	r25, r1
    157a:	db cf       	rjmp	.-74     	; 0x1532 <__stack+0x433>
    157c:	84 ea       	ldi	r24, 0xA4	; 164
}

// START
static inline uint8_t TWI_Start(void)
{
    TWCR = (1<<TWINT) | (1<<TWSTA) | (1<<TWEN);	// START Ω≈»£ ∫∏≥ª±‚
    157e:	80 93 74 00 	sts	0x0074, r24	; 0x800074 <__TEXT_REGION_LENGTH__+0x7e0074>
    1582:	80 e0       	ldi	r24, 0x00	; 0
// Ω≈»£ ¿¸º€ øœ∑· ∞ÀªÁ π◊ Status »Æ¿Œ + Timeout Check 
// Error code: 0=no error, 1=timeout, 2=status mismatch

static inline uint8_t TWI_TransCheck_ACK(uint8_t Stat)
{
    uint16_t cnt = 0;
    1584:	90 e0       	ldi	r25, 0x00	; 0
    1586:	07 c0       	rjmp	.+14     	; 0x1596 <__stack+0x497>
    1588:	9c 01       	movw	r18, r24
    while (!(TWCR & (1<<TWINT)))				// ∆–≈∂ ¿¸º€ øœ∑·µ… ∂ß ±Ó¡ˆ wait
	{				
        if (cnt++ > ExtDev_ERR_MAX_CNT) return 1; // timeout
    158a:	2f 5f       	subi	r18, 0xFF	; 255
    158c:	3f 4f       	sbci	r19, 0xFF	; 255
    158e:	81 3d       	cpi	r24, 0xD1	; 209
    1590:	97 40       	sbci	r25, 0x07	; 7
    1592:	60 f4       	brcc	.+24     	; 0x15ac <__stack+0x4ad>
    1594:	c9 01       	movw	r24, r18
    1596:	20 91 74 00 	lds	r18, 0x0074	; 0x800074 <__TEXT_REGION_LENGTH__+0x7e0074>
// Error code: 0=no error, 1=timeout, 2=status mismatch

static inline uint8_t TWI_TransCheck_ACK(uint8_t Stat)
{
    uint16_t cnt = 0;
    while (!(TWCR & (1<<TWINT)))				// ∆–≈∂ ¿¸º€ øœ∑·µ… ∂ß ±Ó¡ˆ wait
    159a:	22 23       	and	r18, r18
    159c:	ac f7       	brge	.-22     	; 0x1588 <__stack+0x489>
    159e:	80 91 71 00 	lds	r24, 0x0071	; 0x800071 <__TEXT_REGION_LENGTH__+0x7e0071>
	{				
        if (cnt++ > ExtDev_ERR_MAX_CNT) return 1; // timeout
    }
    if ((TWSR & 0xF8) != Stat) return 2;         // status mismatch, ¿¸º€ ∞ÀªÁ error(2 π›»Ø)
    15a2:	88 7f       	andi	r24, 0xF8	; 248
    15a4:	88 30       	cpi	r24, 0x08	; 8
    15a6:	21 f0       	breq	.+8      	; 0x15b0 <__stack+0x4b1>
    15a8:	22 e0       	ldi	r18, 0x02	; 2
    15aa:	03 c0       	rjmp	.+6      	; 0x15b2 <__stack+0x4b3>
    15ac:	21 e0       	ldi	r18, 0x01	; 1
static inline uint8_t TWI_TransCheck_ACK(uint8_t Stat)
{
    uint16_t cnt = 0;
    while (!(TWCR & (1<<TWINT)))				// ∆–≈∂ ¿¸º€ øœ∑·µ… ∂ß ±Ó¡ˆ wait
	{				
        if (cnt++ > ExtDev_ERR_MAX_CNT) return 1; // timeout
    15ae:	01 c0       	rjmp	.+2      	; 0x15b2 <__stack+0x4b3>
    15b0:	20 e0       	ldi	r18, 0x00	; 0
    }
    if ((TWSR & 0xF8) != Stat) return 2;         // status mismatch, ¿¸º€ ∞ÀªÁ error(2 π›»Ø)
    return 0;
    15b2:	21 11       	cpse	r18, r1

// Master transmit one byte
static inline uint8_t TWI_Master_Transmit(uint8_t Data, uint8_t Addr)
{
    uint8_t ret = TWI_Start();
    if (ret) return ret;
    15b4:	3f c0       	rjmp	.+126    	; 0x1634 <__stack+0x535>
    15b6:	88 e0       	ldi	r24, 0x08	; 8
}

// SLA+W
static inline uint8_t TWI_Write_SLAW(uint8_t Addr)
{
    TWDR = Addr;							// 8-bit slave address (W bit assumed in Addr)
    15b8:	80 93 73 00 	sts	0x0073, r24	; 0x800073 <__TEXT_REGION_LENGTH__+0x7e0073>
    15bc:	84 e8       	ldi	r24, 0x84	; 132
    TWCR = (1<<TWINT) | (1<<TWEN);			// SLA + W ∆–≈∂ ∫∏≥ª±‚  
    15be:	80 93 74 00 	sts	0x0074, r24	; 0x800074 <__TEXT_REGION_LENGTH__+0x7e0074>
    15c2:	80 e0       	ldi	r24, 0x00	; 0
// Ω≈»£ ¿¸º€ øœ∑· ∞ÀªÁ π◊ Status »Æ¿Œ + Timeout Check 
// Error code: 0=no error, 1=timeout, 2=status mismatch

static inline uint8_t TWI_TransCheck_ACK(uint8_t Stat)
{
    uint16_t cnt = 0;
    15c4:	90 e0       	ldi	r25, 0x00	; 0
    15c6:	07 c0       	rjmp	.+14     	; 0x15d6 <__stack+0x4d7>
    15c8:	ac 01       	movw	r20, r24
    while (!(TWCR & (1<<TWINT)))				// ∆–≈∂ ¿¸º€ øœ∑·µ… ∂ß ±Ó¡ˆ wait
	{				
        if (cnt++ > ExtDev_ERR_MAX_CNT) return 1; // timeout
    15ca:	4f 5f       	subi	r20, 0xFF	; 255
    15cc:	5f 4f       	sbci	r21, 0xFF	; 255
    15ce:	81 3d       	cpi	r24, 0xD1	; 209
    15d0:	97 40       	sbci	r25, 0x07	; 7
    15d2:	60 f4       	brcc	.+24     	; 0x15ec <__stack+0x4ed>
    15d4:	ca 01       	movw	r24, r20
    15d6:	30 91 74 00 	lds	r19, 0x0074	; 0x800074 <__TEXT_REGION_LENGTH__+0x7e0074>
// Error code: 0=no error, 1=timeout, 2=status mismatch

static inline uint8_t TWI_TransCheck_ACK(uint8_t Stat)
{
    uint16_t cnt = 0;
    while (!(TWCR & (1<<TWINT)))				// ∆–≈∂ ¿¸º€ øœ∑·µ… ∂ß ±Ó¡ˆ wait
    15da:	33 23       	and	r19, r19
    15dc:	ac f7       	brge	.-22     	; 0x15c8 <__stack+0x4c9>
    15de:	80 91 71 00 	lds	r24, 0x0071	; 0x800071 <__TEXT_REGION_LENGTH__+0x7e0071>
	{				
        if (cnt++ > ExtDev_ERR_MAX_CNT) return 1; // timeout
    }
    if ((TWSR & 0xF8) != Stat) return 2;         // status mismatch, ¿¸º€ ∞ÀªÁ error(2 π›»Ø)
    15e2:	88 7f       	andi	r24, 0xF8	; 248
    15e4:	88 31       	cpi	r24, 0x18	; 24
    15e6:	19 f0       	breq	.+6      	; 0x15ee <__stack+0x4ef>
    15e8:	22 e0       	ldi	r18, 0x02	; 2
    15ea:	01 c0       	rjmp	.+2      	; 0x15ee <__stack+0x4ef>
    15ec:	21 e0       	ldi	r18, 0x01	; 1
static inline uint8_t TWI_TransCheck_ACK(uint8_t Stat)
{
    uint16_t cnt = 0;
    while (!(TWCR & (1<<TWINT)))				// ∆–≈∂ ¿¸º€ øœ∑·µ… ∂ß ±Ó¡ˆ wait
	{				
        if (cnt++ > ExtDev_ERR_MAX_CNT) return 1; // timeout
    15ee:	21 11       	cpse	r18, r1
static inline uint8_t TWI_Master_Transmit(uint8_t Data, uint8_t Addr)
{
    uint8_t ret = TWI_Start();
    if (ret) return ret;
    ret = TWI_Write_SLAW(Addr);
    if (ret) return ret;
    15f0:	21 c0       	rjmp	.+66     	; 0x1634 <__stack+0x535>
    15f2:	83 e3       	ldi	r24, 0x33	; 51
}

// DATA (write), µ•¿Ã≈Õ ∆–≈∂ ¿¸º€
static inline uint8_t TWI_Write_Data(uint8_t Data)
{
    TWDR = Data;
    15f4:	80 93 73 00 	sts	0x0073, r24	; 0x800073 <__TEXT_REGION_LENGTH__+0x7e0073>
    15f8:	84 e8       	ldi	r24, 0x84	; 132
    TWCR = (1<<TWINT) | (1<<TWEN);		   // µ•¿Ã≈Õ ∆–≈∂ º€Ω≈
    15fa:	80 93 74 00 	sts	0x0074, r24	; 0x800074 <__TEXT_REGION_LENGTH__+0x7e0074>
    15fe:	80 e0       	ldi	r24, 0x00	; 0
// Ω≈»£ ¿¸º€ øœ∑· ∞ÀªÁ π◊ Status »Æ¿Œ + Timeout Check 
// Error code: 0=no error, 1=timeout, 2=status mismatch

static inline uint8_t TWI_TransCheck_ACK(uint8_t Stat)
{
    uint16_t cnt = 0;
    1600:	90 e0       	ldi	r25, 0x00	; 0
    1602:	07 c0       	rjmp	.+14     	; 0x1612 <__stack+0x513>
    1604:	ac 01       	movw	r20, r24
    while (!(TWCR & (1<<TWINT)))				// ∆–≈∂ ¿¸º€ øœ∑·µ… ∂ß ±Ó¡ˆ wait
	{				
        if (cnt++ > ExtDev_ERR_MAX_CNT) return 1; // timeout
    1606:	4f 5f       	subi	r20, 0xFF	; 255
    1608:	5f 4f       	sbci	r21, 0xFF	; 255
    160a:	81 3d       	cpi	r24, 0xD1	; 209
    160c:	97 40       	sbci	r25, 0x07	; 7
    160e:	60 f4       	brcc	.+24     	; 0x1628 <__stack+0x529>
    1610:	ca 01       	movw	r24, r20
    1612:	30 91 74 00 	lds	r19, 0x0074	; 0x800074 <__TEXT_REGION_LENGTH__+0x7e0074>
// Error code: 0=no error, 1=timeout, 2=status mismatch

static inline uint8_t TWI_TransCheck_ACK(uint8_t Stat)
{
    uint16_t cnt = 0;
    while (!(TWCR & (1<<TWINT)))				// ∆–≈∂ ¿¸º€ øœ∑·µ… ∂ß ±Ó¡ˆ wait
    1616:	33 23       	and	r19, r19
    1618:	ac f7       	brge	.-22     	; 0x1604 <__stack+0x505>
    161a:	80 91 71 00 	lds	r24, 0x0071	; 0x800071 <__TEXT_REGION_LENGTH__+0x7e0071>
	{				
        if (cnt++ > ExtDev_ERR_MAX_CNT) return 1; // timeout
    }
    if ((TWSR & 0xF8) != Stat) return 2;         // status mismatch, ¿¸º€ ∞ÀªÁ error(2 π›»Ø)
    161e:	88 7f       	andi	r24, 0xF8	; 248
    1620:	88 32       	cpi	r24, 0x28	; 40
    1622:	19 f0       	breq	.+6      	; 0x162a <__stack+0x52b>
    1624:	22 e0       	ldi	r18, 0x02	; 2
    1626:	01 c0       	rjmp	.+2      	; 0x162a <__stack+0x52b>
    1628:	21 e0       	ldi	r18, 0x01	; 1
static inline uint8_t TWI_TransCheck_ACK(uint8_t Stat)
{
    uint16_t cnt = 0;
    while (!(TWCR & (1<<TWINT)))				// ∆–≈∂ ¿¸º€ øœ∑·µ… ∂ß ±Ó¡ˆ wait
	{				
        if (cnt++ > ExtDev_ERR_MAX_CNT) return 1; // timeout
    162a:	21 11       	cpse	r18, r1
    uint8_t ret = TWI_Start();
    if (ret) return ret;
    ret = TWI_Write_SLAW(Addr);
    if (ret) return ret;
    ret = TWI_Write_Data(Data);
    if (ret) return ret;
    162c:	03 c0       	rjmp	.+6      	; 0x1634 <__stack+0x535>
    162e:	84 e9       	ldi	r24, 0x94	; 148
}

// STOP
static inline void TWI_Stop(void)
{
    TWCR = (1<<TWINT) | (1<<TWSTO) | (1<<TWEN);
    1630:	80 93 74 00 	sts	0x0074, r24	; 0x800074 <__TEXT_REGION_LENGTH__+0x7e0074>
    1634:	cf ef       	ldi	r28, 0xFF	; 255
				TWI_Master_Transmit(SLAVE_LCD_CLEAR_CMD, SLAVE_ADDR); // command to clear slave lcd
				break;
				case PC_BTN_3: // this is just reserved for any other case
				// TODO: Add function for key 4
				// previous_program_status = program_status;
				program_status = STATUS_IDLE;
    1636:	8d 2f       	mov	r24, r29
				TWI_Master_Transmit(SLAVE_LCD_CLEAR_CMD, SLAVE_ADDR); // command to clear slave lcd
				break;
				default: // Should not reach here
				break;
			} // end of switch case for key functions
			sprintf((char*)global_usart_send_msg_buffer, "%d %d\r\n", program_status, previous_program_status);
    1638:	0d 2e       	mov	r0, r29
    163a:	00 0c       	add	r0, r0
    163c:	99 0b       	sbc	r25, r25
    163e:	9f 93       	push	r25
    1640:	df 93       	push	r29
    1642:	8c 2f       	mov	r24, r28
    1644:	0c 2e       	mov	r0, r28
    1646:	00 0c       	add	r0, r0
    1648:	99 0b       	sbc	r25, r25
    164a:	9f 93       	push	r25
    164c:	cf 93       	push	r28
    164e:	88 ea       	ldi	r24, 0xA8	; 168
    1650:	91 e0       	ldi	r25, 0x01	; 1
    1652:	9f 93       	push	r25
    1654:	8f 93       	push	r24
    1656:	82 ee       	ldi	r24, 0xE2	; 226
    1658:	91 e0       	ldi	r25, 0x01	; 1
    165a:	9f 93       	push	r25
    165c:	8f 93       	push	r24
    165e:	3b d0       	rcall	.+118    	; 0x16d6 <sprintf>
    1660:	8d b7       	in	r24, 0x3d	; 61
    1662:	9e b7       	in	r25, 0x3e	; 62
    1664:	08 96       	adiw	r24, 0x08	; 8
    1666:	0f b6       	in	r0, 0x3f	; 63
    1668:	f8 94       	cli
    166a:	9e bf       	out	0x3e, r25	; 62
    166c:	0f be       	out	0x3f, r0	; 63
    166e:	8d bf       	out	0x3d, r24	; 61
    1670:	e2 ee       	ldi	r30, 0xE2	; 226
    1672:	f1 e0       	ldi	r31, 0x01	; 1
    1674:	07 c0       	rjmp	.+14     	; 0x1684 <__stack+0x585>
    1676:	31 96       	adiw	r30, 0x01	; 1
}

static inline void puts_USART1(char *str)
{
    while (*str != 0) {
        putch_USART1(*str++);
    1678:	80 91 9b 00 	lds	r24, 0x009B	; 0x80009b <__TEXT_REGION_LENGTH__+0x7e009b>
    UCSR1C = _BV(UCSZ11) | _BV(UCSZ10); // 8N1
}

static inline void putch_USART1(char data)
{
    while (!(UCSR1A & _BV(UDRE1))) {;}
    167c:	85 ff       	sbrs	r24, 5
    167e:	fc cf       	rjmp	.-8      	; 0x1678 <__stack+0x579>
    1680:	90 93 9c 00 	sts	0x009C, r25	; 0x80009c <__TEXT_REGION_LENGTH__+0x7e009c>
    UDR1 = data;
    1684:	90 81       	ld	r25, Z
}

static inline void puts_USART1(char *str)
{
    while (*str != 0) {
    1686:	91 11       	cpse	r25, r1
    1688:	f6 cf       	rjmp	.-20     	; 0x1676 <__stack+0x577>
    168a:	c1 11       	cpse	r28, r1
			puts_USART1((char*)global_usart_send_msg_buffer); // send current seconds to USART1
		} // end of if for key pressed

		if(program_status == STATUS_SEND_A)
    168c:	06 c0       	rjmp	.+12     	; 0x169a <__stack+0x59b>
    168e:	6d 2f       	mov	r22, r29
		{
			process_pc_button_0(program_status, previous_program_status);
    1690:	8c 2f       	mov	r24, r28
    1692:	0e 94 19 02 	call	0x432	; 0x432 <process_pc_button_0>
    1696:	dc 2f       	mov	r29, r28
			previous_program_status = program_status;
    1698:	b6 cc       	rjmp	.-1684   	; 0x1006 <__DATA_REGION_LENGTH__+0x6>
		}
		else if(program_status == STATUS_SEND_A_TO_Z)
    169a:	c1 30       	cpi	r28, 0x01	; 1
    169c:	29 f4       	brne	.+10     	; 0x16a8 <__stack+0x5a9>
		{
			process_pc_button_1(program_status, previous_program_status);
    169e:	6d 2f       	mov	r22, r29
    16a0:	8c 2f       	mov	r24, r28
    16a2:	5a d8       	rcall	.-3916   	; 0x758 <process_pc_button_1>
    16a4:	dc 2f       	mov	r29, r28
			previous_program_status = program_status;
    16a6:	af cc       	rjmp	.-1698   	; 0x1006 <__DATA_REGION_LENGTH__+0x6>
		}
		else if(program_status == STATUS_SEND_STRING_POLLING)
    16a8:	c2 30       	cpi	r28, 0x02	; 2
    16aa:	09 f0       	breq	.+2      	; 0x16ae <__stack+0x5af>
    16ac:	ac cc       	rjmp	.-1704   	; 0x1006 <__DATA_REGION_LENGTH__+0x6>
		{
			process_pc_button_2(program_status, previous_program_status);
    16ae:	6d 2f       	mov	r22, r29
    16b0:	8c 2f       	mov	r24, r28
    16b2:	fd d9       	rcall	.-3078   	; 0xaae <process_pc_button_2>
    16b4:	dc 2f       	mov	r29, r28
			previous_program_status = program_status;
    16b6:	a7 cc       	rjmp	.-1714   	; 0x1006 <__DATA_REGION_LENGTH__+0x6>

000016b8 <__umulhisi3>:
    16b8:	a2 9f       	mul	r26, r18
    16ba:	b0 01       	movw	r22, r0
    16bc:	b3 9f       	mul	r27, r19
    16be:	c0 01       	movw	r24, r0
    16c0:	a3 9f       	mul	r26, r19
    16c2:	70 0d       	add	r23, r0
    16c4:	81 1d       	adc	r24, r1
    16c6:	11 24       	eor	r1, r1
    16c8:	91 1d       	adc	r25, r1
    16ca:	b2 9f       	mul	r27, r18
    16cc:	70 0d       	add	r23, r0
    16ce:	81 1d       	adc	r24, r1
    16d0:	11 24       	eor	r1, r1
    16d2:	91 1d       	adc	r25, r1
    16d4:	08 95       	ret

000016d6 <sprintf>:
    16d6:	0f 93       	push	r16
    16d8:	1f 93       	push	r17
    16da:	cf 93       	push	r28
    16dc:	df 93       	push	r29
    16de:	cd b7       	in	r28, 0x3d	; 61
    16e0:	de b7       	in	r29, 0x3e	; 62
    16e2:	2e 97       	sbiw	r28, 0x0e	; 14
    16e4:	0f b6       	in	r0, 0x3f	; 63
    16e6:	f8 94       	cli
    16e8:	de bf       	out	0x3e, r29	; 62
    16ea:	0f be       	out	0x3f, r0	; 63
    16ec:	cd bf       	out	0x3d, r28	; 61
    16ee:	0d 89       	ldd	r16, Y+21	; 0x15
    16f0:	1e 89       	ldd	r17, Y+22	; 0x16
    16f2:	86 e0       	ldi	r24, 0x06	; 6
    16f4:	8c 83       	std	Y+4, r24	; 0x04
    16f6:	1a 83       	std	Y+2, r17	; 0x02
    16f8:	09 83       	std	Y+1, r16	; 0x01
    16fa:	8f ef       	ldi	r24, 0xFF	; 255
    16fc:	9f e7       	ldi	r25, 0x7F	; 127
    16fe:	9e 83       	std	Y+6, r25	; 0x06
    1700:	8d 83       	std	Y+5, r24	; 0x05
    1702:	ae 01       	movw	r20, r28
    1704:	47 5e       	subi	r20, 0xE7	; 231
    1706:	5f 4f       	sbci	r21, 0xFF	; 255
    1708:	6f 89       	ldd	r22, Y+23	; 0x17
    170a:	78 8d       	ldd	r23, Y+24	; 0x18
    170c:	ce 01       	movw	r24, r28
    170e:	01 96       	adiw	r24, 0x01	; 1
    1710:	10 d0       	rcall	.+32     	; 0x1732 <vfprintf>
    1712:	ef 81       	ldd	r30, Y+7	; 0x07
    1714:	f8 85       	ldd	r31, Y+8	; 0x08
    1716:	e0 0f       	add	r30, r16
    1718:	f1 1f       	adc	r31, r17
    171a:	10 82       	st	Z, r1
    171c:	2e 96       	adiw	r28, 0x0e	; 14
    171e:	0f b6       	in	r0, 0x3f	; 63
    1720:	f8 94       	cli
    1722:	de bf       	out	0x3e, r29	; 62
    1724:	0f be       	out	0x3f, r0	; 63
    1726:	cd bf       	out	0x3d, r28	; 61
    1728:	df 91       	pop	r29
    172a:	cf 91       	pop	r28
    172c:	1f 91       	pop	r17
    172e:	0f 91       	pop	r16
    1730:	08 95       	ret

00001732 <vfprintf>:
    1732:	2f 92       	push	r2
    1734:	3f 92       	push	r3
    1736:	4f 92       	push	r4
    1738:	5f 92       	push	r5
    173a:	6f 92       	push	r6
    173c:	7f 92       	push	r7
    173e:	8f 92       	push	r8
    1740:	9f 92       	push	r9
    1742:	af 92       	push	r10
    1744:	bf 92       	push	r11
    1746:	cf 92       	push	r12
    1748:	df 92       	push	r13
    174a:	ef 92       	push	r14
    174c:	ff 92       	push	r15
    174e:	0f 93       	push	r16
    1750:	1f 93       	push	r17
    1752:	cf 93       	push	r28
    1754:	df 93       	push	r29
    1756:	cd b7       	in	r28, 0x3d	; 61
    1758:	de b7       	in	r29, 0x3e	; 62
    175a:	2b 97       	sbiw	r28, 0x0b	; 11
    175c:	0f b6       	in	r0, 0x3f	; 63
    175e:	f8 94       	cli
    1760:	de bf       	out	0x3e, r29	; 62
    1762:	0f be       	out	0x3f, r0	; 63
    1764:	cd bf       	out	0x3d, r28	; 61
    1766:	6c 01       	movw	r12, r24
    1768:	7b 01       	movw	r14, r22
    176a:	8a 01       	movw	r16, r20
    176c:	fc 01       	movw	r30, r24
    176e:	17 82       	std	Z+7, r1	; 0x07
    1770:	16 82       	std	Z+6, r1	; 0x06
    1772:	83 81       	ldd	r24, Z+3	; 0x03
    1774:	81 ff       	sbrs	r24, 1
    1776:	bf c1       	rjmp	.+894    	; 0x1af6 <vfprintf+0x3c4>
    1778:	ce 01       	movw	r24, r28
    177a:	01 96       	adiw	r24, 0x01	; 1
    177c:	3c 01       	movw	r6, r24
    177e:	f6 01       	movw	r30, r12
    1780:	93 81       	ldd	r25, Z+3	; 0x03
    1782:	f7 01       	movw	r30, r14
    1784:	93 fd       	sbrc	r25, 3
    1786:	85 91       	lpm	r24, Z+
    1788:	93 ff       	sbrs	r25, 3
    178a:	81 91       	ld	r24, Z+
    178c:	7f 01       	movw	r14, r30
    178e:	88 23       	and	r24, r24
    1790:	09 f4       	brne	.+2      	; 0x1794 <vfprintf+0x62>
    1792:	ad c1       	rjmp	.+858    	; 0x1aee <vfprintf+0x3bc>
    1794:	85 32       	cpi	r24, 0x25	; 37
    1796:	39 f4       	brne	.+14     	; 0x17a6 <vfprintf+0x74>
    1798:	93 fd       	sbrc	r25, 3
    179a:	85 91       	lpm	r24, Z+
    179c:	93 ff       	sbrs	r25, 3
    179e:	81 91       	ld	r24, Z+
    17a0:	7f 01       	movw	r14, r30
    17a2:	85 32       	cpi	r24, 0x25	; 37
    17a4:	21 f4       	brne	.+8      	; 0x17ae <vfprintf+0x7c>
    17a6:	b6 01       	movw	r22, r12
    17a8:	90 e0       	ldi	r25, 0x00	; 0
    17aa:	d6 d1       	rcall	.+940    	; 0x1b58 <fputc>
    17ac:	e8 cf       	rjmp	.-48     	; 0x177e <vfprintf+0x4c>
    17ae:	91 2c       	mov	r9, r1
    17b0:	21 2c       	mov	r2, r1
    17b2:	31 2c       	mov	r3, r1
    17b4:	ff e1       	ldi	r31, 0x1F	; 31
    17b6:	f3 15       	cp	r31, r3
    17b8:	d8 f0       	brcs	.+54     	; 0x17f0 <vfprintf+0xbe>
    17ba:	8b 32       	cpi	r24, 0x2B	; 43
    17bc:	79 f0       	breq	.+30     	; 0x17dc <vfprintf+0xaa>
    17be:	38 f4       	brcc	.+14     	; 0x17ce <vfprintf+0x9c>
    17c0:	80 32       	cpi	r24, 0x20	; 32
    17c2:	79 f0       	breq	.+30     	; 0x17e2 <vfprintf+0xb0>
    17c4:	83 32       	cpi	r24, 0x23	; 35
    17c6:	a1 f4       	brne	.+40     	; 0x17f0 <vfprintf+0xbe>
    17c8:	23 2d       	mov	r18, r3
    17ca:	20 61       	ori	r18, 0x10	; 16
    17cc:	1d c0       	rjmp	.+58     	; 0x1808 <vfprintf+0xd6>
    17ce:	8d 32       	cpi	r24, 0x2D	; 45
    17d0:	61 f0       	breq	.+24     	; 0x17ea <vfprintf+0xb8>
    17d2:	80 33       	cpi	r24, 0x30	; 48
    17d4:	69 f4       	brne	.+26     	; 0x17f0 <vfprintf+0xbe>
    17d6:	23 2d       	mov	r18, r3
    17d8:	21 60       	ori	r18, 0x01	; 1
    17da:	16 c0       	rjmp	.+44     	; 0x1808 <vfprintf+0xd6>
    17dc:	83 2d       	mov	r24, r3
    17de:	82 60       	ori	r24, 0x02	; 2
    17e0:	38 2e       	mov	r3, r24
    17e2:	e3 2d       	mov	r30, r3
    17e4:	e4 60       	ori	r30, 0x04	; 4
    17e6:	3e 2e       	mov	r3, r30
    17e8:	2a c0       	rjmp	.+84     	; 0x183e <vfprintf+0x10c>
    17ea:	f3 2d       	mov	r31, r3
    17ec:	f8 60       	ori	r31, 0x08	; 8
    17ee:	1d c0       	rjmp	.+58     	; 0x182a <vfprintf+0xf8>
    17f0:	37 fc       	sbrc	r3, 7
    17f2:	2d c0       	rjmp	.+90     	; 0x184e <vfprintf+0x11c>
    17f4:	20 ed       	ldi	r18, 0xD0	; 208
    17f6:	28 0f       	add	r18, r24
    17f8:	2a 30       	cpi	r18, 0x0A	; 10
    17fa:	40 f0       	brcs	.+16     	; 0x180c <vfprintf+0xda>
    17fc:	8e 32       	cpi	r24, 0x2E	; 46
    17fe:	b9 f4       	brne	.+46     	; 0x182e <vfprintf+0xfc>
    1800:	36 fc       	sbrc	r3, 6
    1802:	75 c1       	rjmp	.+746    	; 0x1aee <vfprintf+0x3bc>
    1804:	23 2d       	mov	r18, r3
    1806:	20 64       	ori	r18, 0x40	; 64
    1808:	32 2e       	mov	r3, r18
    180a:	19 c0       	rjmp	.+50     	; 0x183e <vfprintf+0x10c>
    180c:	36 fe       	sbrs	r3, 6
    180e:	06 c0       	rjmp	.+12     	; 0x181c <vfprintf+0xea>
    1810:	8a e0       	ldi	r24, 0x0A	; 10
    1812:	98 9e       	mul	r9, r24
    1814:	20 0d       	add	r18, r0
    1816:	11 24       	eor	r1, r1
    1818:	92 2e       	mov	r9, r18
    181a:	11 c0       	rjmp	.+34     	; 0x183e <vfprintf+0x10c>
    181c:	ea e0       	ldi	r30, 0x0A	; 10
    181e:	2e 9e       	mul	r2, r30
    1820:	20 0d       	add	r18, r0
    1822:	11 24       	eor	r1, r1
    1824:	22 2e       	mov	r2, r18
    1826:	f3 2d       	mov	r31, r3
    1828:	f0 62       	ori	r31, 0x20	; 32
    182a:	3f 2e       	mov	r3, r31
    182c:	08 c0       	rjmp	.+16     	; 0x183e <vfprintf+0x10c>
    182e:	8c 36       	cpi	r24, 0x6C	; 108
    1830:	21 f4       	brne	.+8      	; 0x183a <vfprintf+0x108>
    1832:	83 2d       	mov	r24, r3
    1834:	80 68       	ori	r24, 0x80	; 128
    1836:	38 2e       	mov	r3, r24
    1838:	02 c0       	rjmp	.+4      	; 0x183e <vfprintf+0x10c>
    183a:	88 36       	cpi	r24, 0x68	; 104
    183c:	41 f4       	brne	.+16     	; 0x184e <vfprintf+0x11c>
    183e:	f7 01       	movw	r30, r14
    1840:	93 fd       	sbrc	r25, 3
    1842:	85 91       	lpm	r24, Z+
    1844:	93 ff       	sbrs	r25, 3
    1846:	81 91       	ld	r24, Z+
    1848:	7f 01       	movw	r14, r30
    184a:	81 11       	cpse	r24, r1
    184c:	b3 cf       	rjmp	.-154    	; 0x17b4 <vfprintf+0x82>
    184e:	98 2f       	mov	r25, r24
    1850:	9f 7d       	andi	r25, 0xDF	; 223
    1852:	95 54       	subi	r25, 0x45	; 69
    1854:	93 30       	cpi	r25, 0x03	; 3
    1856:	28 f4       	brcc	.+10     	; 0x1862 <vfprintf+0x130>
    1858:	0c 5f       	subi	r16, 0xFC	; 252
    185a:	1f 4f       	sbci	r17, 0xFF	; 255
    185c:	9f e3       	ldi	r25, 0x3F	; 63
    185e:	99 83       	std	Y+1, r25	; 0x01
    1860:	0d c0       	rjmp	.+26     	; 0x187c <vfprintf+0x14a>
    1862:	83 36       	cpi	r24, 0x63	; 99
    1864:	31 f0       	breq	.+12     	; 0x1872 <vfprintf+0x140>
    1866:	83 37       	cpi	r24, 0x73	; 115
    1868:	71 f0       	breq	.+28     	; 0x1886 <vfprintf+0x154>
    186a:	83 35       	cpi	r24, 0x53	; 83
    186c:	09 f0       	breq	.+2      	; 0x1870 <vfprintf+0x13e>
    186e:	55 c0       	rjmp	.+170    	; 0x191a <vfprintf+0x1e8>
    1870:	20 c0       	rjmp	.+64     	; 0x18b2 <vfprintf+0x180>
    1872:	f8 01       	movw	r30, r16
    1874:	80 81       	ld	r24, Z
    1876:	89 83       	std	Y+1, r24	; 0x01
    1878:	0e 5f       	subi	r16, 0xFE	; 254
    187a:	1f 4f       	sbci	r17, 0xFF	; 255
    187c:	88 24       	eor	r8, r8
    187e:	83 94       	inc	r8
    1880:	91 2c       	mov	r9, r1
    1882:	53 01       	movw	r10, r6
    1884:	12 c0       	rjmp	.+36     	; 0x18aa <vfprintf+0x178>
    1886:	28 01       	movw	r4, r16
    1888:	f2 e0       	ldi	r31, 0x02	; 2
    188a:	4f 0e       	add	r4, r31
    188c:	51 1c       	adc	r5, r1
    188e:	f8 01       	movw	r30, r16
    1890:	a0 80       	ld	r10, Z
    1892:	b1 80       	ldd	r11, Z+1	; 0x01
    1894:	36 fe       	sbrs	r3, 6
    1896:	03 c0       	rjmp	.+6      	; 0x189e <vfprintf+0x16c>
    1898:	69 2d       	mov	r22, r9
    189a:	70 e0       	ldi	r23, 0x00	; 0
    189c:	02 c0       	rjmp	.+4      	; 0x18a2 <vfprintf+0x170>
    189e:	6f ef       	ldi	r22, 0xFF	; 255
    18a0:	7f ef       	ldi	r23, 0xFF	; 255
    18a2:	c5 01       	movw	r24, r10
    18a4:	4e d1       	rcall	.+668    	; 0x1b42 <strnlen>
    18a6:	4c 01       	movw	r8, r24
    18a8:	82 01       	movw	r16, r4
    18aa:	f3 2d       	mov	r31, r3
    18ac:	ff 77       	andi	r31, 0x7F	; 127
    18ae:	3f 2e       	mov	r3, r31
    18b0:	15 c0       	rjmp	.+42     	; 0x18dc <vfprintf+0x1aa>
    18b2:	28 01       	movw	r4, r16
    18b4:	22 e0       	ldi	r18, 0x02	; 2
    18b6:	42 0e       	add	r4, r18
    18b8:	51 1c       	adc	r5, r1
    18ba:	f8 01       	movw	r30, r16
    18bc:	a0 80       	ld	r10, Z
    18be:	b1 80       	ldd	r11, Z+1	; 0x01
    18c0:	36 fe       	sbrs	r3, 6
    18c2:	03 c0       	rjmp	.+6      	; 0x18ca <vfprintf+0x198>
    18c4:	69 2d       	mov	r22, r9
    18c6:	70 e0       	ldi	r23, 0x00	; 0
    18c8:	02 c0       	rjmp	.+4      	; 0x18ce <vfprintf+0x19c>
    18ca:	6f ef       	ldi	r22, 0xFF	; 255
    18cc:	7f ef       	ldi	r23, 0xFF	; 255
    18ce:	c5 01       	movw	r24, r10
    18d0:	2d d1       	rcall	.+602    	; 0x1b2c <strnlen_P>
    18d2:	4c 01       	movw	r8, r24
    18d4:	f3 2d       	mov	r31, r3
    18d6:	f0 68       	ori	r31, 0x80	; 128
    18d8:	3f 2e       	mov	r3, r31
    18da:	82 01       	movw	r16, r4
    18dc:	33 fc       	sbrc	r3, 3
    18de:	19 c0       	rjmp	.+50     	; 0x1912 <vfprintf+0x1e0>
    18e0:	82 2d       	mov	r24, r2
    18e2:	90 e0       	ldi	r25, 0x00	; 0
    18e4:	88 16       	cp	r8, r24
    18e6:	99 06       	cpc	r9, r25
    18e8:	a0 f4       	brcc	.+40     	; 0x1912 <vfprintf+0x1e0>
    18ea:	b6 01       	movw	r22, r12
    18ec:	80 e2       	ldi	r24, 0x20	; 32
    18ee:	90 e0       	ldi	r25, 0x00	; 0
    18f0:	33 d1       	rcall	.+614    	; 0x1b58 <fputc>
    18f2:	2a 94       	dec	r2
    18f4:	f5 cf       	rjmp	.-22     	; 0x18e0 <vfprintf+0x1ae>
    18f6:	f5 01       	movw	r30, r10
    18f8:	37 fc       	sbrc	r3, 7
    18fa:	85 91       	lpm	r24, Z+
    18fc:	37 fe       	sbrs	r3, 7
    18fe:	81 91       	ld	r24, Z+
    1900:	5f 01       	movw	r10, r30
    1902:	b6 01       	movw	r22, r12
    1904:	90 e0       	ldi	r25, 0x00	; 0
    1906:	28 d1       	rcall	.+592    	; 0x1b58 <fputc>
    1908:	21 10       	cpse	r2, r1
    190a:	2a 94       	dec	r2
    190c:	21 e0       	ldi	r18, 0x01	; 1
    190e:	82 1a       	sub	r8, r18
    1910:	91 08       	sbc	r9, r1
    1912:	81 14       	cp	r8, r1
    1914:	91 04       	cpc	r9, r1
    1916:	79 f7       	brne	.-34     	; 0x18f6 <vfprintf+0x1c4>
    1918:	e1 c0       	rjmp	.+450    	; 0x1adc <vfprintf+0x3aa>
    191a:	84 36       	cpi	r24, 0x64	; 100
    191c:	11 f0       	breq	.+4      	; 0x1922 <vfprintf+0x1f0>
    191e:	89 36       	cpi	r24, 0x69	; 105
    1920:	39 f5       	brne	.+78     	; 0x1970 <vfprintf+0x23e>
    1922:	f8 01       	movw	r30, r16
    1924:	37 fe       	sbrs	r3, 7
    1926:	07 c0       	rjmp	.+14     	; 0x1936 <vfprintf+0x204>
    1928:	60 81       	ld	r22, Z
    192a:	71 81       	ldd	r23, Z+1	; 0x01
    192c:	82 81       	ldd	r24, Z+2	; 0x02
    192e:	93 81       	ldd	r25, Z+3	; 0x03
    1930:	0c 5f       	subi	r16, 0xFC	; 252
    1932:	1f 4f       	sbci	r17, 0xFF	; 255
    1934:	08 c0       	rjmp	.+16     	; 0x1946 <vfprintf+0x214>
    1936:	60 81       	ld	r22, Z
    1938:	71 81       	ldd	r23, Z+1	; 0x01
    193a:	07 2e       	mov	r0, r23
    193c:	00 0c       	add	r0, r0
    193e:	88 0b       	sbc	r24, r24
    1940:	99 0b       	sbc	r25, r25
    1942:	0e 5f       	subi	r16, 0xFE	; 254
    1944:	1f 4f       	sbci	r17, 0xFF	; 255
    1946:	f3 2d       	mov	r31, r3
    1948:	ff 76       	andi	r31, 0x6F	; 111
    194a:	3f 2e       	mov	r3, r31
    194c:	97 ff       	sbrs	r25, 7
    194e:	09 c0       	rjmp	.+18     	; 0x1962 <vfprintf+0x230>
    1950:	90 95       	com	r25
    1952:	80 95       	com	r24
    1954:	70 95       	com	r23
    1956:	61 95       	neg	r22
    1958:	7f 4f       	sbci	r23, 0xFF	; 255
    195a:	8f 4f       	sbci	r24, 0xFF	; 255
    195c:	9f 4f       	sbci	r25, 0xFF	; 255
    195e:	f0 68       	ori	r31, 0x80	; 128
    1960:	3f 2e       	mov	r3, r31
    1962:	2a e0       	ldi	r18, 0x0A	; 10
    1964:	30 e0       	ldi	r19, 0x00	; 0
    1966:	a3 01       	movw	r20, r6
    1968:	33 d1       	rcall	.+614    	; 0x1bd0 <__ultoa_invert>
    196a:	88 2e       	mov	r8, r24
    196c:	86 18       	sub	r8, r6
    196e:	44 c0       	rjmp	.+136    	; 0x19f8 <vfprintf+0x2c6>
    1970:	85 37       	cpi	r24, 0x75	; 117
    1972:	31 f4       	brne	.+12     	; 0x1980 <vfprintf+0x24e>
    1974:	23 2d       	mov	r18, r3
    1976:	2f 7e       	andi	r18, 0xEF	; 239
    1978:	b2 2e       	mov	r11, r18
    197a:	2a e0       	ldi	r18, 0x0A	; 10
    197c:	30 e0       	ldi	r19, 0x00	; 0
    197e:	25 c0       	rjmp	.+74     	; 0x19ca <vfprintf+0x298>
    1980:	93 2d       	mov	r25, r3
    1982:	99 7f       	andi	r25, 0xF9	; 249
    1984:	b9 2e       	mov	r11, r25
    1986:	8f 36       	cpi	r24, 0x6F	; 111
    1988:	c1 f0       	breq	.+48     	; 0x19ba <vfprintf+0x288>
    198a:	18 f4       	brcc	.+6      	; 0x1992 <vfprintf+0x260>
    198c:	88 35       	cpi	r24, 0x58	; 88
    198e:	79 f0       	breq	.+30     	; 0x19ae <vfprintf+0x27c>
    1990:	ae c0       	rjmp	.+348    	; 0x1aee <vfprintf+0x3bc>
    1992:	80 37       	cpi	r24, 0x70	; 112
    1994:	19 f0       	breq	.+6      	; 0x199c <vfprintf+0x26a>
    1996:	88 37       	cpi	r24, 0x78	; 120
    1998:	21 f0       	breq	.+8      	; 0x19a2 <vfprintf+0x270>
    199a:	a9 c0       	rjmp	.+338    	; 0x1aee <vfprintf+0x3bc>
    199c:	e9 2f       	mov	r30, r25
    199e:	e0 61       	ori	r30, 0x10	; 16
    19a0:	be 2e       	mov	r11, r30
    19a2:	b4 fe       	sbrs	r11, 4
    19a4:	0d c0       	rjmp	.+26     	; 0x19c0 <vfprintf+0x28e>
    19a6:	fb 2d       	mov	r31, r11
    19a8:	f4 60       	ori	r31, 0x04	; 4
    19aa:	bf 2e       	mov	r11, r31
    19ac:	09 c0       	rjmp	.+18     	; 0x19c0 <vfprintf+0x28e>
    19ae:	34 fe       	sbrs	r3, 4
    19b0:	0a c0       	rjmp	.+20     	; 0x19c6 <vfprintf+0x294>
    19b2:	29 2f       	mov	r18, r25
    19b4:	26 60       	ori	r18, 0x06	; 6
    19b6:	b2 2e       	mov	r11, r18
    19b8:	06 c0       	rjmp	.+12     	; 0x19c6 <vfprintf+0x294>
    19ba:	28 e0       	ldi	r18, 0x08	; 8
    19bc:	30 e0       	ldi	r19, 0x00	; 0
    19be:	05 c0       	rjmp	.+10     	; 0x19ca <vfprintf+0x298>
    19c0:	20 e1       	ldi	r18, 0x10	; 16
    19c2:	30 e0       	ldi	r19, 0x00	; 0
    19c4:	02 c0       	rjmp	.+4      	; 0x19ca <vfprintf+0x298>
    19c6:	20 e1       	ldi	r18, 0x10	; 16
    19c8:	32 e0       	ldi	r19, 0x02	; 2
    19ca:	f8 01       	movw	r30, r16
    19cc:	b7 fe       	sbrs	r11, 7
    19ce:	07 c0       	rjmp	.+14     	; 0x19de <vfprintf+0x2ac>
    19d0:	60 81       	ld	r22, Z
    19d2:	71 81       	ldd	r23, Z+1	; 0x01
    19d4:	82 81       	ldd	r24, Z+2	; 0x02
    19d6:	93 81       	ldd	r25, Z+3	; 0x03
    19d8:	0c 5f       	subi	r16, 0xFC	; 252
    19da:	1f 4f       	sbci	r17, 0xFF	; 255
    19dc:	06 c0       	rjmp	.+12     	; 0x19ea <vfprintf+0x2b8>
    19de:	60 81       	ld	r22, Z
    19e0:	71 81       	ldd	r23, Z+1	; 0x01
    19e2:	80 e0       	ldi	r24, 0x00	; 0
    19e4:	90 e0       	ldi	r25, 0x00	; 0
    19e6:	0e 5f       	subi	r16, 0xFE	; 254
    19e8:	1f 4f       	sbci	r17, 0xFF	; 255
    19ea:	a3 01       	movw	r20, r6
    19ec:	f1 d0       	rcall	.+482    	; 0x1bd0 <__ultoa_invert>
    19ee:	88 2e       	mov	r8, r24
    19f0:	86 18       	sub	r8, r6
    19f2:	fb 2d       	mov	r31, r11
    19f4:	ff 77       	andi	r31, 0x7F	; 127
    19f6:	3f 2e       	mov	r3, r31
    19f8:	36 fe       	sbrs	r3, 6
    19fa:	0d c0       	rjmp	.+26     	; 0x1a16 <vfprintf+0x2e4>
    19fc:	23 2d       	mov	r18, r3
    19fe:	2e 7f       	andi	r18, 0xFE	; 254
    1a00:	a2 2e       	mov	r10, r18
    1a02:	89 14       	cp	r8, r9
    1a04:	58 f4       	brcc	.+22     	; 0x1a1c <vfprintf+0x2ea>
    1a06:	34 fe       	sbrs	r3, 4
    1a08:	0b c0       	rjmp	.+22     	; 0x1a20 <vfprintf+0x2ee>
    1a0a:	32 fc       	sbrc	r3, 2
    1a0c:	09 c0       	rjmp	.+18     	; 0x1a20 <vfprintf+0x2ee>
    1a0e:	83 2d       	mov	r24, r3
    1a10:	8e 7e       	andi	r24, 0xEE	; 238
    1a12:	a8 2e       	mov	r10, r24
    1a14:	05 c0       	rjmp	.+10     	; 0x1a20 <vfprintf+0x2ee>
    1a16:	b8 2c       	mov	r11, r8
    1a18:	a3 2c       	mov	r10, r3
    1a1a:	03 c0       	rjmp	.+6      	; 0x1a22 <vfprintf+0x2f0>
    1a1c:	b8 2c       	mov	r11, r8
    1a1e:	01 c0       	rjmp	.+2      	; 0x1a22 <vfprintf+0x2f0>
    1a20:	b9 2c       	mov	r11, r9
    1a22:	a4 fe       	sbrs	r10, 4
    1a24:	0f c0       	rjmp	.+30     	; 0x1a44 <vfprintf+0x312>
    1a26:	fe 01       	movw	r30, r28
    1a28:	e8 0d       	add	r30, r8
    1a2a:	f1 1d       	adc	r31, r1
    1a2c:	80 81       	ld	r24, Z
    1a2e:	80 33       	cpi	r24, 0x30	; 48
    1a30:	21 f4       	brne	.+8      	; 0x1a3a <vfprintf+0x308>
    1a32:	9a 2d       	mov	r25, r10
    1a34:	99 7e       	andi	r25, 0xE9	; 233
    1a36:	a9 2e       	mov	r10, r25
    1a38:	09 c0       	rjmp	.+18     	; 0x1a4c <vfprintf+0x31a>
    1a3a:	a2 fe       	sbrs	r10, 2
    1a3c:	06 c0       	rjmp	.+12     	; 0x1a4a <vfprintf+0x318>
    1a3e:	b3 94       	inc	r11
    1a40:	b3 94       	inc	r11
    1a42:	04 c0       	rjmp	.+8      	; 0x1a4c <vfprintf+0x31a>
    1a44:	8a 2d       	mov	r24, r10
    1a46:	86 78       	andi	r24, 0x86	; 134
    1a48:	09 f0       	breq	.+2      	; 0x1a4c <vfprintf+0x31a>
    1a4a:	b3 94       	inc	r11
    1a4c:	a3 fc       	sbrc	r10, 3
    1a4e:	10 c0       	rjmp	.+32     	; 0x1a70 <vfprintf+0x33e>
    1a50:	a0 fe       	sbrs	r10, 0
    1a52:	06 c0       	rjmp	.+12     	; 0x1a60 <vfprintf+0x32e>
    1a54:	b2 14       	cp	r11, r2
    1a56:	80 f4       	brcc	.+32     	; 0x1a78 <vfprintf+0x346>
    1a58:	28 0c       	add	r2, r8
    1a5a:	92 2c       	mov	r9, r2
    1a5c:	9b 18       	sub	r9, r11
    1a5e:	0d c0       	rjmp	.+26     	; 0x1a7a <vfprintf+0x348>
    1a60:	b2 14       	cp	r11, r2
    1a62:	58 f4       	brcc	.+22     	; 0x1a7a <vfprintf+0x348>
    1a64:	b6 01       	movw	r22, r12
    1a66:	80 e2       	ldi	r24, 0x20	; 32
    1a68:	90 e0       	ldi	r25, 0x00	; 0
    1a6a:	76 d0       	rcall	.+236    	; 0x1b58 <fputc>
    1a6c:	b3 94       	inc	r11
    1a6e:	f8 cf       	rjmp	.-16     	; 0x1a60 <vfprintf+0x32e>
    1a70:	b2 14       	cp	r11, r2
    1a72:	18 f4       	brcc	.+6      	; 0x1a7a <vfprintf+0x348>
    1a74:	2b 18       	sub	r2, r11
    1a76:	02 c0       	rjmp	.+4      	; 0x1a7c <vfprintf+0x34a>
    1a78:	98 2c       	mov	r9, r8
    1a7a:	21 2c       	mov	r2, r1
    1a7c:	a4 fe       	sbrs	r10, 4
    1a7e:	0f c0       	rjmp	.+30     	; 0x1a9e <vfprintf+0x36c>
    1a80:	b6 01       	movw	r22, r12
    1a82:	80 e3       	ldi	r24, 0x30	; 48
    1a84:	90 e0       	ldi	r25, 0x00	; 0
    1a86:	68 d0       	rcall	.+208    	; 0x1b58 <fputc>
    1a88:	a2 fe       	sbrs	r10, 2
    1a8a:	16 c0       	rjmp	.+44     	; 0x1ab8 <vfprintf+0x386>
    1a8c:	a1 fc       	sbrc	r10, 1
    1a8e:	03 c0       	rjmp	.+6      	; 0x1a96 <vfprintf+0x364>
    1a90:	88 e7       	ldi	r24, 0x78	; 120
    1a92:	90 e0       	ldi	r25, 0x00	; 0
    1a94:	02 c0       	rjmp	.+4      	; 0x1a9a <vfprintf+0x368>
    1a96:	88 e5       	ldi	r24, 0x58	; 88
    1a98:	90 e0       	ldi	r25, 0x00	; 0
    1a9a:	b6 01       	movw	r22, r12
    1a9c:	0c c0       	rjmp	.+24     	; 0x1ab6 <vfprintf+0x384>
    1a9e:	8a 2d       	mov	r24, r10
    1aa0:	86 78       	andi	r24, 0x86	; 134
    1aa2:	51 f0       	breq	.+20     	; 0x1ab8 <vfprintf+0x386>
    1aa4:	a1 fe       	sbrs	r10, 1
    1aa6:	02 c0       	rjmp	.+4      	; 0x1aac <vfprintf+0x37a>
    1aa8:	8b e2       	ldi	r24, 0x2B	; 43
    1aaa:	01 c0       	rjmp	.+2      	; 0x1aae <vfprintf+0x37c>
    1aac:	80 e2       	ldi	r24, 0x20	; 32
    1aae:	a7 fc       	sbrc	r10, 7
    1ab0:	8d e2       	ldi	r24, 0x2D	; 45
    1ab2:	b6 01       	movw	r22, r12
    1ab4:	90 e0       	ldi	r25, 0x00	; 0
    1ab6:	50 d0       	rcall	.+160    	; 0x1b58 <fputc>
    1ab8:	89 14       	cp	r8, r9
    1aba:	30 f4       	brcc	.+12     	; 0x1ac8 <vfprintf+0x396>
    1abc:	b6 01       	movw	r22, r12
    1abe:	80 e3       	ldi	r24, 0x30	; 48
    1ac0:	90 e0       	ldi	r25, 0x00	; 0
    1ac2:	4a d0       	rcall	.+148    	; 0x1b58 <fputc>
    1ac4:	9a 94       	dec	r9
    1ac6:	f8 cf       	rjmp	.-16     	; 0x1ab8 <vfprintf+0x386>
    1ac8:	8a 94       	dec	r8
    1aca:	f3 01       	movw	r30, r6
    1acc:	e8 0d       	add	r30, r8
    1ace:	f1 1d       	adc	r31, r1
    1ad0:	80 81       	ld	r24, Z
    1ad2:	b6 01       	movw	r22, r12
    1ad4:	90 e0       	ldi	r25, 0x00	; 0
    1ad6:	40 d0       	rcall	.+128    	; 0x1b58 <fputc>
    1ad8:	81 10       	cpse	r8, r1
    1ada:	f6 cf       	rjmp	.-20     	; 0x1ac8 <vfprintf+0x396>
    1adc:	22 20       	and	r2, r2
    1ade:	09 f4       	brne	.+2      	; 0x1ae2 <vfprintf+0x3b0>
    1ae0:	4e ce       	rjmp	.-868    	; 0x177e <vfprintf+0x4c>
    1ae2:	b6 01       	movw	r22, r12
    1ae4:	80 e2       	ldi	r24, 0x20	; 32
    1ae6:	90 e0       	ldi	r25, 0x00	; 0
    1ae8:	37 d0       	rcall	.+110    	; 0x1b58 <fputc>
    1aea:	2a 94       	dec	r2
    1aec:	f7 cf       	rjmp	.-18     	; 0x1adc <vfprintf+0x3aa>
    1aee:	f6 01       	movw	r30, r12
    1af0:	86 81       	ldd	r24, Z+6	; 0x06
    1af2:	97 81       	ldd	r25, Z+7	; 0x07
    1af4:	02 c0       	rjmp	.+4      	; 0x1afa <vfprintf+0x3c8>
    1af6:	8f ef       	ldi	r24, 0xFF	; 255
    1af8:	9f ef       	ldi	r25, 0xFF	; 255
    1afa:	2b 96       	adiw	r28, 0x0b	; 11
    1afc:	0f b6       	in	r0, 0x3f	; 63
    1afe:	f8 94       	cli
    1b00:	de bf       	out	0x3e, r29	; 62
    1b02:	0f be       	out	0x3f, r0	; 63
    1b04:	cd bf       	out	0x3d, r28	; 61
    1b06:	df 91       	pop	r29
    1b08:	cf 91       	pop	r28
    1b0a:	1f 91       	pop	r17
    1b0c:	0f 91       	pop	r16
    1b0e:	ff 90       	pop	r15
    1b10:	ef 90       	pop	r14
    1b12:	df 90       	pop	r13
    1b14:	cf 90       	pop	r12
    1b16:	bf 90       	pop	r11
    1b18:	af 90       	pop	r10
    1b1a:	9f 90       	pop	r9
    1b1c:	8f 90       	pop	r8
    1b1e:	7f 90       	pop	r7
    1b20:	6f 90       	pop	r6
    1b22:	5f 90       	pop	r5
    1b24:	4f 90       	pop	r4
    1b26:	3f 90       	pop	r3
    1b28:	2f 90       	pop	r2
    1b2a:	08 95       	ret

00001b2c <strnlen_P>:
    1b2c:	fc 01       	movw	r30, r24
    1b2e:	05 90       	lpm	r0, Z+
    1b30:	61 50       	subi	r22, 0x01	; 1
    1b32:	70 40       	sbci	r23, 0x00	; 0
    1b34:	01 10       	cpse	r0, r1
    1b36:	d8 f7       	brcc	.-10     	; 0x1b2e <strnlen_P+0x2>
    1b38:	80 95       	com	r24
    1b3a:	90 95       	com	r25
    1b3c:	8e 0f       	add	r24, r30
    1b3e:	9f 1f       	adc	r25, r31
    1b40:	08 95       	ret

00001b42 <strnlen>:
    1b42:	fc 01       	movw	r30, r24
    1b44:	61 50       	subi	r22, 0x01	; 1
    1b46:	70 40       	sbci	r23, 0x00	; 0
    1b48:	01 90       	ld	r0, Z+
    1b4a:	01 10       	cpse	r0, r1
    1b4c:	d8 f7       	brcc	.-10     	; 0x1b44 <strnlen+0x2>
    1b4e:	80 95       	com	r24
    1b50:	90 95       	com	r25
    1b52:	8e 0f       	add	r24, r30
    1b54:	9f 1f       	adc	r25, r31
    1b56:	08 95       	ret

00001b58 <fputc>:
    1b58:	0f 93       	push	r16
    1b5a:	1f 93       	push	r17
    1b5c:	cf 93       	push	r28
    1b5e:	df 93       	push	r29
    1b60:	fb 01       	movw	r30, r22
    1b62:	23 81       	ldd	r18, Z+3	; 0x03
    1b64:	21 fd       	sbrc	r18, 1
    1b66:	03 c0       	rjmp	.+6      	; 0x1b6e <fputc+0x16>
    1b68:	8f ef       	ldi	r24, 0xFF	; 255
    1b6a:	9f ef       	ldi	r25, 0xFF	; 255
    1b6c:	2c c0       	rjmp	.+88     	; 0x1bc6 <fputc+0x6e>
    1b6e:	22 ff       	sbrs	r18, 2
    1b70:	16 c0       	rjmp	.+44     	; 0x1b9e <fputc+0x46>
    1b72:	46 81       	ldd	r20, Z+6	; 0x06
    1b74:	57 81       	ldd	r21, Z+7	; 0x07
    1b76:	24 81       	ldd	r18, Z+4	; 0x04
    1b78:	35 81       	ldd	r19, Z+5	; 0x05
    1b7a:	42 17       	cp	r20, r18
    1b7c:	53 07       	cpc	r21, r19
    1b7e:	44 f4       	brge	.+16     	; 0x1b90 <fputc+0x38>
    1b80:	a0 81       	ld	r26, Z
    1b82:	b1 81       	ldd	r27, Z+1	; 0x01
    1b84:	9d 01       	movw	r18, r26
    1b86:	2f 5f       	subi	r18, 0xFF	; 255
    1b88:	3f 4f       	sbci	r19, 0xFF	; 255
    1b8a:	31 83       	std	Z+1, r19	; 0x01
    1b8c:	20 83       	st	Z, r18
    1b8e:	8c 93       	st	X, r24
    1b90:	26 81       	ldd	r18, Z+6	; 0x06
    1b92:	37 81       	ldd	r19, Z+7	; 0x07
    1b94:	2f 5f       	subi	r18, 0xFF	; 255
    1b96:	3f 4f       	sbci	r19, 0xFF	; 255
    1b98:	37 83       	std	Z+7, r19	; 0x07
    1b9a:	26 83       	std	Z+6, r18	; 0x06
    1b9c:	14 c0       	rjmp	.+40     	; 0x1bc6 <fputc+0x6e>
    1b9e:	8b 01       	movw	r16, r22
    1ba0:	ec 01       	movw	r28, r24
    1ba2:	fb 01       	movw	r30, r22
    1ba4:	00 84       	ldd	r0, Z+8	; 0x08
    1ba6:	f1 85       	ldd	r31, Z+9	; 0x09
    1ba8:	e0 2d       	mov	r30, r0
    1baa:	09 95       	icall
    1bac:	89 2b       	or	r24, r25
    1bae:	e1 f6       	brne	.-72     	; 0x1b68 <fputc+0x10>
    1bb0:	d8 01       	movw	r26, r16
    1bb2:	16 96       	adiw	r26, 0x06	; 6
    1bb4:	8d 91       	ld	r24, X+
    1bb6:	9c 91       	ld	r25, X
    1bb8:	17 97       	sbiw	r26, 0x07	; 7
    1bba:	01 96       	adiw	r24, 0x01	; 1
    1bbc:	17 96       	adiw	r26, 0x07	; 7
    1bbe:	9c 93       	st	X, r25
    1bc0:	8e 93       	st	-X, r24
    1bc2:	16 97       	sbiw	r26, 0x06	; 6
    1bc4:	ce 01       	movw	r24, r28
    1bc6:	df 91       	pop	r29
    1bc8:	cf 91       	pop	r28
    1bca:	1f 91       	pop	r17
    1bcc:	0f 91       	pop	r16
    1bce:	08 95       	ret

00001bd0 <__ultoa_invert>:
    1bd0:	fa 01       	movw	r30, r20
    1bd2:	aa 27       	eor	r26, r26
    1bd4:	28 30       	cpi	r18, 0x08	; 8
    1bd6:	51 f1       	breq	.+84     	; 0x1c2c <__ultoa_invert+0x5c>
    1bd8:	20 31       	cpi	r18, 0x10	; 16
    1bda:	81 f1       	breq	.+96     	; 0x1c3c <__ultoa_invert+0x6c>
    1bdc:	e8 94       	clt
    1bde:	6f 93       	push	r22
    1be0:	6e 7f       	andi	r22, 0xFE	; 254
    1be2:	6e 5f       	subi	r22, 0xFE	; 254
    1be4:	7f 4f       	sbci	r23, 0xFF	; 255
    1be6:	8f 4f       	sbci	r24, 0xFF	; 255
    1be8:	9f 4f       	sbci	r25, 0xFF	; 255
    1bea:	af 4f       	sbci	r26, 0xFF	; 255
    1bec:	b1 e0       	ldi	r27, 0x01	; 1
    1bee:	3e d0       	rcall	.+124    	; 0x1c6c <__ultoa_invert+0x9c>
    1bf0:	b4 e0       	ldi	r27, 0x04	; 4
    1bf2:	3c d0       	rcall	.+120    	; 0x1c6c <__ultoa_invert+0x9c>
    1bf4:	67 0f       	add	r22, r23
    1bf6:	78 1f       	adc	r23, r24
    1bf8:	89 1f       	adc	r24, r25
    1bfa:	9a 1f       	adc	r25, r26
    1bfc:	a1 1d       	adc	r26, r1
    1bfe:	68 0f       	add	r22, r24
    1c00:	79 1f       	adc	r23, r25
    1c02:	8a 1f       	adc	r24, r26
    1c04:	91 1d       	adc	r25, r1
    1c06:	a1 1d       	adc	r26, r1
    1c08:	6a 0f       	add	r22, r26
    1c0a:	71 1d       	adc	r23, r1
    1c0c:	81 1d       	adc	r24, r1
    1c0e:	91 1d       	adc	r25, r1
    1c10:	a1 1d       	adc	r26, r1
    1c12:	20 d0       	rcall	.+64     	; 0x1c54 <__ultoa_invert+0x84>
    1c14:	09 f4       	brne	.+2      	; 0x1c18 <__ultoa_invert+0x48>
    1c16:	68 94       	set
    1c18:	3f 91       	pop	r19
    1c1a:	2a e0       	ldi	r18, 0x0A	; 10
    1c1c:	26 9f       	mul	r18, r22
    1c1e:	11 24       	eor	r1, r1
    1c20:	30 19       	sub	r19, r0
    1c22:	30 5d       	subi	r19, 0xD0	; 208
    1c24:	31 93       	st	Z+, r19
    1c26:	de f6       	brtc	.-74     	; 0x1bde <__ultoa_invert+0xe>
    1c28:	cf 01       	movw	r24, r30
    1c2a:	08 95       	ret
    1c2c:	46 2f       	mov	r20, r22
    1c2e:	47 70       	andi	r20, 0x07	; 7
    1c30:	40 5d       	subi	r20, 0xD0	; 208
    1c32:	41 93       	st	Z+, r20
    1c34:	b3 e0       	ldi	r27, 0x03	; 3
    1c36:	0f d0       	rcall	.+30     	; 0x1c56 <__ultoa_invert+0x86>
    1c38:	c9 f7       	brne	.-14     	; 0x1c2c <__ultoa_invert+0x5c>
    1c3a:	f6 cf       	rjmp	.-20     	; 0x1c28 <__ultoa_invert+0x58>
    1c3c:	46 2f       	mov	r20, r22
    1c3e:	4f 70       	andi	r20, 0x0F	; 15
    1c40:	40 5d       	subi	r20, 0xD0	; 208
    1c42:	4a 33       	cpi	r20, 0x3A	; 58
    1c44:	18 f0       	brcs	.+6      	; 0x1c4c <__ultoa_invert+0x7c>
    1c46:	49 5d       	subi	r20, 0xD9	; 217
    1c48:	31 fd       	sbrc	r19, 1
    1c4a:	40 52       	subi	r20, 0x20	; 32
    1c4c:	41 93       	st	Z+, r20
    1c4e:	02 d0       	rcall	.+4      	; 0x1c54 <__ultoa_invert+0x84>
    1c50:	a9 f7       	brne	.-22     	; 0x1c3c <__ultoa_invert+0x6c>
    1c52:	ea cf       	rjmp	.-44     	; 0x1c28 <__ultoa_invert+0x58>
    1c54:	b4 e0       	ldi	r27, 0x04	; 4
    1c56:	a6 95       	lsr	r26
    1c58:	97 95       	ror	r25
    1c5a:	87 95       	ror	r24
    1c5c:	77 95       	ror	r23
    1c5e:	67 95       	ror	r22
    1c60:	ba 95       	dec	r27
    1c62:	c9 f7       	brne	.-14     	; 0x1c56 <__ultoa_invert+0x86>
    1c64:	00 97       	sbiw	r24, 0x00	; 0
    1c66:	61 05       	cpc	r22, r1
    1c68:	71 05       	cpc	r23, r1
    1c6a:	08 95       	ret
    1c6c:	9b 01       	movw	r18, r22
    1c6e:	ac 01       	movw	r20, r24
    1c70:	0a 2e       	mov	r0, r26
    1c72:	06 94       	lsr	r0
    1c74:	57 95       	ror	r21
    1c76:	47 95       	ror	r20
    1c78:	37 95       	ror	r19
    1c7a:	27 95       	ror	r18
    1c7c:	ba 95       	dec	r27
    1c7e:	c9 f7       	brne	.-14     	; 0x1c72 <__ultoa_invert+0xa2>
    1c80:	62 0f       	add	r22, r18
    1c82:	73 1f       	adc	r23, r19
    1c84:	84 1f       	adc	r24, r20
    1c86:	95 1f       	adc	r25, r21
    1c88:	a0 1d       	adc	r26, r0
    1c8a:	08 95       	ret

00001c8c <_exit>:
    1c8c:	f8 94       	cli

00001c8e <__stop_program>:
    1c8e:	ff cf       	rjmp	.-2      	; 0x1c8e <__stop_program>
